(dp1
S'output'
p2
S'<class \'gluon.contrib.pypyodbc.IntegrityError\'> (u\'23000\', u"[23000] [Microsoft][ODBC SQL Server Driver][SQL Server]Violation of UNIQUE KEY constraint \'supplier$supplier_name\'. Cannot insert duplicate key in object \'dbo.supplier\'. The duplicate key value is (Joy Gateway).")'
p3
sS'layer'
p4
S'C:\\Users\\RedBox\\Documents\\GitHub\\Online-Retail-Admin\\web2py\\applications\\Admin_Panel\\controllers/default.py'
p5
sS'code'
p6
S'# -*- coding: utf-8 -*-\n# this file is released under public domain and you can use without limitations\n\n# -------------------------------------------------------------------------\n# This is a sample controller\n# - index is the default action of any application\n# - user is required for authentication and authorization\n# - download is for downloading files uploaded in the db (does streaming)\n# -------------------------------------------------------------------------\nfrom urlparse import urlparse\n\ndef parse_url(url):\n    o = urlparse(url)\n    return str(o[2][1:]).split(\'/\')\n\ndef index():\n    """\n    example action using the internationalization operator T and flash\n    rendered by views/default/index.html or views/generic.html\n\n    if you need a simple wiki simply replace the two lines below with:\n    return auth.wiki()\n    """\n    url = parse_url(request.url)\n    print url\n\n    products = db.executesql("SELECT * FROM get_product")\n    user_data = db.executesql("SELECT * FROM auth_user")\n    suppliers = db.executesql("SELECT * FROM supplier")\n\n    return dict(location=T(\'Admin Panel - Index\'), suppliers=suppliers, user_data=user_data, products=products)\n\ndef chart_bars():\n    meses_chart="[\'Candy\', \'Bread\', \'Milk\', \'Coffee\']" #Change this dynamically\n    dados_chart="[3.5, 4, 5, 2]" #Change this dynamically\n    title="Online-Retail-Admin"\n    stitle="Products` Report"\n    dados_map={}\n    dados_map["dados"]=dados_chart\n    dados_map["meses"]=meses_chart\n    dados_map[\'titulo\']=title\n    dados_map[\'subtitulo\']=stitle\n\n    chart="""\n\n        Highcharts.setOptions({\n            lang:{\n            downloadJPEG: "Download em imagem JPG",\n            downloadPDF: "Download em documento PDF",\n            downloadPNG: "Download em imagem PNG",\n            downloadSVG: "Download em vetor SVG",\n            loading: "Lendo...",\n            noData: "Sem dados para mostrar",\n            printChart: "Imprimir Gr\xc3\xa1fico",\n            }\n            });\n\n                // Build the chart\n                $(\'#chart\').highcharts({\n            chart: {\n                type: \'column\'\n            },\n            title: {\n                text: \'%(titulo)s\'\n            },\n            subtitle: {\n                text: \'%(subtitulo)s\'\n            },\n            xAxis: {\n                categories: %(meses)s,\n                crosshair: true\n            },\n            yAxis: {\n                min: 0,\n                title: {\n                    text: \'Money($)\'\n                }\n            },\n            tooltip: {\n                headerFormat: \'<span style="font-size:10px">{point.key}</span><table>\',\n                pointFormat: \'<tr><td style="color:{series.color};padding:0">{series.name}: </td>\' +\n                \'<td style="padding:0"><b>R$ {point.y:.1f} </b></td></tr>\',\n                footerFormat: \'</table>\',\n                shared: true,\n                useHTML: true\n            },\n            plotOptions: {\n                column: {\n                    pointPadding: 0.2,\n                    borderWidth: 0\n                }\n            },\n            credits:{enabled:false},\n            series: [{\n                name: \'Products\',\n                data: %(dados)s\n\n            }]\n        });\n\n       """ %dados_map\n    return dict(chart=XML(\'<script>\'+chart+\'</script>\'))\n\ndef stats():\n    return dict(location=T(\'Admin Panel - Stats\'))\n\ndef supplier():\n    suppliers = db.executesql("SELECT * FROM supplier", as_dict=True)\n    print "inside supplier()"\n    if request.args(0) == \'add\':\n        api_key = "132sdfas5485"\n        api_address = "http://sup3.com/api"\n        added = db.executesql("INSERT INTO supplier (supplier_name, status, contact_first, contact_last, contact_phone, contact_email, api_key, api_address) VALUES (\'"+request.vars.supplier_name+"\', \'"+request.vars.status+"\', \'"+request.vars.contact_first+"\', \'"+request.vars.contact_last+"\', \'"+request.vars.contact_phone+"\', \'"+request.vars.contact_email+"\', \'"+api_key+"\', \'"+api_address+"\')")\n    elif request.args(0) == \'edit\':\n        print(request.vars.supplier_id, "hello")\n        api_key = "132sdfas5485"\n        api_address = "http://sup3.com/api"\n        edited = db.executesql("UPDATE supplier SET supplier_name=\'"+request.vars.supplier_name+"\', status=\'"+request.vars.status+"\', contact_first=\'"+request.vars.contact_first+"\', contact_last=\'"+request.vars.contact_last+"\', contact_phone=\'"+request.vars.contact_phone+"\', contact_email=\'"+request.vars.contact_email+"\', api_key=\'"+"a4d45a5f6"+"\', api_address=\'"+"http://www.google.com"+"\' WHERE supplier_id=\'"+request.vars.supplier_id+"\'")\n        #edited = db.executesql("UPDATE supplier SET supplier_name=\'"+request.vars.contact_first+"\'")\n        suppliers = db.executesql("SELECT * FROM supplier", as_dict=True)\n    return dict(location=T(\'Admin Panel - Suppliers\'), suppliers=suppliers)\n\ndef product():\n    return dict(location=T(\'Admin Panel - Inventory\'))\n\ndef implement():\n    return dict(location=T(\'Admin Panel - Implement\'))\n\ndef user():\n    """\n    exposes:\n    http://..../[app]/default/user/login\n    http://..../[app]/default/user/logout\n    http://..../[app]/default/user/register\n    http://..../[app]/default/user/profile\n    http://..../[app]/default/user/retrieve_password\n    http://..../[app]/default/user/change_password\n    http://..../[app]/default/user/bulk_register\n    use @auth.requires_login()\n        @auth.requires_membership(\'group name\')\n        @auth.requires_permission(\'read\',\'table name\',record_id)\n    to decorate functions that need access control\n    also notice there is http://..../[app]/appadmin/manage/auth to allow administrator to manage users\n    """\n    return dict(form=auth())\n\n\n@cache.action()\ndef download():\n    """\n    allows downloading of uploaded files\n    http://..../[app]/default/download/[filename]\n    """\n    return response.download(request, db)\n\n\ndef call():\n    """\n    exposes services. for example:\n    http://..../[app]/default/call/jsonrpc\n    decorate with @services.jsonrpc the functions to expose\n    supports xml, json, xmlrpc, jsonrpc, amfrpc, rss, csv\n    """\n    return service()\n\nresponse._vars=response._caller(supplier)\n'
p7
sS'snapshot'
p8
(dp9
S'exception'
p10
(dp11
S'__module__'
p12
S"'gluon.contrib.pypyodbc'"
p13
sS'__getslice__'
p14
S"<method-wrapper '__getslice__' of IntegrityError object>"
p15
sS'__str__'
p16
S"<method-wrapper '__str__' of IntegrityError object>"
p17
sS'__reduce__'
p18
S'<built-in method __reduce__ of IntegrityError object>'
p19
sS'__dict__'
p20
S'{\'value\': (u\'23000\', u"[23000] [Microsoft][ODBC SQL Server Driver][SQ...lier\'. The duplicate key value is (Joy Gateway).")}'
p21
sS'__sizeof__'
p22
S'<built-in method __sizeof__ of IntegrityError object>'
p23
sS'__weakref__'
p24
S'None'
p25
sS'__init__'
p26
S'<bound method IntegrityError.__init__ of Integri...er\'. The duplicate key value is (Joy Gateway).")>'
p27
sS'__setattr__'
p28
S"<method-wrapper '__setattr__' of IntegrityError object>"
p29
sS'__reduce_ex__'
p30
S'<built-in method __reduce_ex__ of IntegrityError object>'
p31
sS'__new__'
p32
S'<built-in method __new__ of type object>'
p33
sS'__format__'
p34
S'<built-in method __format__ of IntegrityError object>'
p35
sS'__class__'
p36
S"<class 'gluon.contrib.pypyodbc.IntegrityError'>"
p37
sS'__doc__'
p38
S'None'
p39
sS'__getitem__'
p40
S"<method-wrapper '__getitem__' of IntegrityError object>"
p41
sS'__setstate__'
p42
S'<built-in method __setstate__ of IntegrityError object>'
p43
sS'__getattribute__'
p44
S"<method-wrapper '__getattribute__' of IntegrityError object>"
p45
sS'args'
p46
S'(u\'23000\', u"[23000] [Microsoft][ODBC SQL Server Driver][SQ...lier\'. The duplicate key value is (Joy Gateway).")'
p47
sS'__subclasshook__'
p48
S'<built-in method __subclasshook__ of type object>'
p49
sS'__unicode__'
p50
S'<built-in method __unicode__ of IntegrityError object>'
p51
sS'value'
p52
S'(u\'23000\', u"[23000] [Microsoft][ODBC SQL Server Driver][SQ...lier\'. The duplicate key value is (Joy Gateway).")'
p53
sS'__delattr__'
p54
S"<method-wrapper '__delattr__' of IntegrityError object>"
p55
sS'__repr__'
p56
S"<method-wrapper '__repr__' of IntegrityError object>"
p57
sS'__hash__'
p58
S"<method-wrapper '__hash__' of IntegrityError object>"
p59
ssS'evalue'
p60
S'(u\'23000\', u"[23000] [Microsoft][ODBC SQL Server Driver][SQL Server]Violation of UNIQUE KEY constraint \'supplier$supplier_name\'. Cannot insert duplicate key in object \'dbo.supplier\'. The duplicate key value is (Joy Gateway).")'
p61
sS'request'
p62
cgluon.html
XML_unpickle
p63
(S'sBi\x00\x00<div><table><tr><td style="font-weight:bold;vertical-align:top;">ajax</td><td style="vertical-align:top;">:</td><td><div>False</div></td></tr><tr><td style="font-weight:bold;vertical-align:top;">application</td><td style="vertical-align:top;">:</td><td><div>Admin_Panel</div></td></tr><tr><td style="font-weight:bold;vertical-align:top;">args</td><td style="vertical-align:top;">:</td><td><div><table><tr><td><div>add</div></td></tr></table></div></td></tr><tr><td style="font-weight:bold;vertical-align:top;">cid</td><td style="vertical-align:top;">:</td><td><div>None</div></td></tr><tr><td style="font-weight:bold;vertical-align:top;">client</td><td style="vertical-align:top;">:</td><td><div>127.0.0.1</div></td></tr><tr><td style="font-weight:bold;vertical-align:top;">controller</td><td style="vertical-align:top;">:</td><td><div>default</div></td></tr><tr><td style="font-weight:bold;vertical-align:top;">cookies</td><td style="vertical-align:top;">:</td><td><div><table><tr><td style="font-weight:bold;vertical-align:top;">session_id_admin</td><td style="vertical-align:top;">:</td><td><div>127.0.0.1-0e095fa1-ebce-45f6-9822-e3b4335d165c<table><tr><td style="font-weight:bold;vertical-align:top;">comment</td><td style="vertical-align:top;">:</td><td><div></div></td></tr><tr><td style="font-weight:bold;vertical-align:top;">domain</td><td style="vertical-align:top;">:</td><td><div></div></td></tr><tr><td style="font-weight:bold;vertical-align:top;">expires</td><td style="vertical-align:top;">:</td><td><div></div></td></tr><tr><td style="font-weight:bold;vertical-align:top;">httponly</td><td style="vertical-align:top;">:</td><td><div></div></td></tr><tr><td style="font-weight:bold;vertical-align:top;">max-age</td><td style="vertical-align:top;">:</td><td><div></div></td></tr><tr><td style="font-weight:bold;vertical-align:top;">path</td><td style="vertical-align:top;">:</td><td><div></div></td></tr><tr><td style="font-weight:bold;vertical-align:top;">secure</td><td style="vertical-align:top;">:</td><td><div></div></td></tr><tr><td style="font-weight:bold;vertical-align:top;">version</td><td style="vertical-align:top;">:</td><td><div></div></td></tr></table></div></td></tr><tr><td style="font-weight:bold;vertical-align:top;">session_id_admin_panel</td><td style="vertical-align:top;">:</td><td><div>127.0.0.1-b5cf35d0-afcd-4f5b-b8b9-31244eeaed58<table><tr><td style="font-weight:bold;vertical-align:top;">comment</td><td style="vertical-align:top;">:</td><td><div></div></td></tr><tr><td style="font-weight:bold;vertical-align:top;">domain</td><td style="vertical-align:top;">:</td><td><div></div></td></tr><tr><td style="font-weight:bold;vertical-align:top;">expires</td><td style="vertical-align:top;">:</td><td><div></div></td></tr><tr><td style="font-weight:bold;vertical-align:top;">httponly</td><td style="vertical-align:top;">:</td><td><div></div></td></tr><tr><td style="font-weight:bold;vertical-align:top;">max-age</td><td style="vertical-align:top;">:</td><td><div></div></td></tr><tr><td style="font-weight:bold;vertical-align:top;">path</td><td style="vertical-align:top;">:</td><td><div></div></td></tr><tr><td style="font-weight:bold;vertical-align:top;">secure</td><td style="vertical-align:top;">:</td><td><div></div></td></tr><tr><td style="font-weight:bold;vertical-align:top;">version</td><td style="vertical-align:top;">:</td><td><div></div></td></tr></table></div></td></tr><tr><td style="font-weight:bold;vertical-align:top;">session_id_welcome</td><td style="vertical-align:top;">:</td><td><div>127.0.0.1-9defbee5-b5c3-4b51-8a08-fa66b8c0b6e3<table><tr><td style="font-weight:bold;vertical-align:top;">comment</td><td style="vertical-align:top;">:</td><td><div></div></td></tr><tr><td style="font-weight:bold;vertical-align:top;">domain</td><td style="vertical-align:top;">:</td><td><div></div></td></tr><tr><td style="font-weight:bold;vertical-align:top;">expires</td><td style="vertical-align:top;">:</td><td><div></div></td></tr><tr><td style="font-weight:bold;vertical-align:top;">httponly</td><td style="vertical-align:top;">:</td><td><div></div></td></tr><tr><td style="font-weight:bold;vertical-align:top;">max-age</td><td style="vertical-align:top;">:</td><td><div></div></td></tr><tr><td style="font-weight:bold;vertical-align:top;">path</td><td style="vertical-align:top;">:</td><td><div></div></td></tr><tr><td style="font-weight:bold;vertical-align:top;">secure</td><td style="vertical-align:top;">:</td><td><div></div></td></tr><tr><td style="font-weight:bold;vertical-align:top;">version</td><td style="vertical-align:top;">:</td><td><div></div></td></tr></table></div></td></tr></table></div></td></tr><tr><td style="font-weight:bold;vertical-align:top;">env</td><td style="vertical-align:top;">:</td><td><div><table><tr><td style="font-weight:bold;vertical-align:top;">CONTENT_LENGTH</td><td style="vertical-align:top;">:</td><td><div>693</div></td></tr><tr><td style="font-weight:bold;vertical-align:top;">CONTENT_TYPE</td><td style="vertical-align:top;">:</td><td><div>multipart/form-data; boundary=----WebKitFormBoundaryThmCAgk5b5QdqVma</div></td></tr><tr><td style="font-weight:bold;vertical-align:top;">HTTP_ACCEPT</td><td style="vertical-align:top;">:</td><td><div>text/html,application/xhtml+xml,application/xml;q=0.9,image/webp,*/*;q=0.8</div></td></tr><tr><td style="font-weight:bold;vertical-align:top;">HTTP_ACCEPT_ENCODING</td><td style="vertical-align:top;">:</td><td><div>gzip, deflate, br</div></td></tr><tr><td style="font-weight:bold;vertical-align:top;">HTTP_ACCEPT_LANGUAGE</td><td style="vertical-align:top;">:</td><td><div>en-US,en;q=0.8</div></td></tr><tr><td style="font-weight:bold;vertical-align:top;">HTTP_CACHE_CONTROL</td><td style="vertical-align:top;">:</td><td><div>max-age=0</div></td></tr><tr><td style="font-weight:bold;vertical-align:top;">HTTP_CONNECTION</td><td style="vertical-align:top;">:</td><td><div>keep-alive</div></td></tr><tr><td style="font-weight:bold;vertical-align:top;">HTTP_CONTENT_LENGTH</td><td style="vertical-align:top;">:</td><td><div>693</div></td></tr><tr><td style="font-weight:bold;vertical-align:top;">HTTP_CONTENT_TYPE</td><td style="vertical-align:top;">:</td><td><div>multipart/form-data; boundary=----WebKitFormBoundaryThmCAgk5b5QdqVma</div></td></tr><tr><td style="font-weight:bold;vertical-align:top;">HTTP_COOKIE</td><td style="vertical-align:top;">:</td><td><div>session_id_welcome=127.0.0.1-9defbee5-b5c3-4b51-8a08-fa66b8c0b6e3; session_id_admin=127.0.0.1-0e095fa1-ebce-45f6-9822-e3b4335d165c; session_id_admin_panel=127.0.0.1-b5cf35d0-afcd-4f5b-b8b9-31244eeaed58</div></td></tr><tr><td style="font-weight:bold;vertical-align:top;">HTTP_HOST</td><td style="vertical-align:top;">:</td><td><div>127.0.0.1:8000</div></td></tr><tr><td style="font-weight:bold;vertical-align:top;">HTTP_ORIGIN</td><td style="vertical-align:top;">:</td><td><div>http://127.0.0.1:8000</div></td></tr><tr><td style="font-weight:bold;vertical-align:top;">HTTP_REFERER</td><td style="vertical-align:top;">:</td><td><div>http://127.0.0.1:8000/Admin_Panel/default/supplier/edit</div></td></tr><tr><td style="font-weight:bold;vertical-align:top;">HTTP_UPGRADE_INSECURE_REQUESTS</td><td style="vertical-align:top;">:</td><td><div>1</div></td></tr><tr><td style="font-weight:bold;vertical-align:top;">HTTP_USER_AGENT</td><td style="vertical-align:top;">:</td><td><div>Mozilla/5.0 (Windows NT 10.0; Win64; x64) AppleWebKit/537.36 (KHTML, like Gecko) Chrome/54.0.2840.71 Safari/537.36</div></td></tr><tr><td style="font-weight:bold;vertical-align:top;">PATH_INFO</td><td style="vertical-align:top;">:</td><td><div>/Admin_Panel/default/supplier/add</div></td></tr><tr><td style="font-weight:bold;vertical-align:top;">QUERY_STRING</td><td style="vertical-align:top;">:</td><td><div></div></td></tr><tr><td style="font-weight:bold;vertical-align:top;">REMOTE_ADDR</td><td style="vertical-align:top;">:</td><td><div>127.0.0.1</div></td></tr><tr><td style="font-weight:bold;vertical-align:top;">REMOTE_PORT</td><td style="vertical-align:top;">:</td><td><div>57055</div></td></tr><tr><td style="font-weight:bold;vertical-align:top;">REQUEST_METHOD</td><td style="vertical-align:top;">:</td><td><div>POST</div></td></tr><tr><td style="font-weight:bold;vertical-align:top;">SCRIPT_NAME</td><td style="vertical-align:top;">:</td><td><div></div></td></tr><tr><td style="font-weight:bold;vertical-align:top;">SERVER_NAME</td><td style="vertical-align:top;">:</td><td><div>DESKTOP-4QFVUT9</div></td></tr><tr><td style="font-weight:bold;vertical-align:top;">SERVER_PORT</td><td style="vertical-align:top;">:</td><td><div>8000</div></td></tr><tr><td style="font-weight:bold;vertical-align:top;">SERVER_PROTOCOL</td><td style="vertical-align:top;">:</td><td><div>HTTP/1.1</div></td></tr><tr><td style="font-weight:bold;vertical-align:top;">SERVER_SOFTWARE</td><td style="vertical-align:top;">:</td><td><div>Rocket 1.2.6</div></td></tr><tr><td style="font-weight:bold;vertical-align:top;">app_folders</td><td style="vertical-align:top;">:</td><td><div>set([&#x27;C:\\\\Users\\\\RedBox\\\\Documents\\\\GitHub\\\\Online-Retail-Admin\\\\web2py\\\\applications\\\\welcome\\\\&#x27;, &#x27;C:\\\\Users\\\\RedBox\\\\Documents\\\\GitHub\\\\Online-Retail-Admin\\\\web2py\\\\applications\\\\Admin_Panel\\\\&#x27;, &#x27;C:\\\\Users\\\\RedBox\\\\Documents\\\\GitHub\\\\Online-Retail-Admin\\\\web2py\\\\applications\\\\admin\\\\&#x27;])</div></td></tr><tr><td style="font-weight:bold;vertical-align:top;">applications_parent</td><td style="vertical-align:top;">:</td><td><div>C:\\Users\\RedBox\\Documents\\GitHub\\Online-Retail-Admin\\web2py</div></td></tr><tr><td style="font-weight:bold;vertical-align:top;">cmd_args</td><td style="vertical-align:top;">:</td><td><div><table></table></div></td></tr><tr><td style="font-weight:bold;vertical-align:top;">cmd_options</td><td style="vertical-align:top;">:</td><td><div>&lt;Values at 0x415b080: {&#x27;verbose&#x27;: False, &#x27;ip&#x27;: &#x27;127.0.0.1&#x27;, &#x27;debuglevel&#x27;: 30, &#x27;with_scheduler&#x27;: False, &#x27;shutdown_timeout&#x27;: 5, &#x27;taskbar&#x27;: False, &#x27;with_coverage&#x27;: False, &#x27;pid_filename&#x27;: &#x27;httpserver.pid&#x27;, &#x27;maxthreads&#x27;: None, &#x27;softcron&#x27;: False, &#x27;server_name&#x27;: &#x27;DESKTOP-4QFVUT9&#x27;, &#x27;bpython&#x27;: False, &#x27;nogui&#x27;: False, &#x27;port&#x27;: 8000, &#x27;print_errors&#x27;: False, &#x27;extcron&#x27;: False, &#x27;runcron&#x27;: False, &#x27;run_system_tests&#x27;: False, &#x27;test&#x27;: None, &#x27;folder&#x27;: &#x27;C:\\\\Users\\\\RedBox\\\\Documents\\\\GitHub\\\\Online-Retail-Admin\\\\web2py&#x27;, &#x27;config&#x27;: &#x27;&#x27;, &#x27;minthreads&#x27;: None, &#x27;shell&#x27;: None, &#x27;run&#x27;: &#x27;&#x27;, &#x27;log_filename&#x27;: &#x27;httpserver.log&#x27;, &#x27;profiler_dir&#x27;: None, &#x27;args&#x27;: [&#x27;&#x27;], &#x27;socket_timeout&#x27;: 5, &#x27;ssl_ca_certificate&#x27;: None, &#x27;scheduler&#x27;: None, &#x27;interfaces&#x27;: None, &#x27;ssl_private_key&#x27;: &#x27;&#x27;, &#x27;gae&#x27;: None, &#x27;password&#x27;: &#x27;******&#x27;, &#x27;request_queue_size&#x27;: 5, &#x27;ssl_certificate&#x27;: &#x27;&#x27;, &#x27;cronjob&#x27;: False, &#x27;numthreads&#x27;: None, &#x27;quiet&#x27;: False, &#x27;import_models&#x27;: False, &#x27;timeout&#x27;: 10, &#x27;plain&#x27;: False, &#x27;nobanner&#x27;: False}&gt;</div></td></tr><tr><td style="font-weight:bold;vertical-align:top;">content_length</td><td style="vertical-align:top;">:</td><td><div>693</div></td></tr><tr><td style="font-weight:bold;vertical-align:top;">content_type</td><td style="vertical-align:top;">:</td><td><div>multipart/form-data; boundary=----WebKitFormBoundaryThmCAgk5b5QdqVma</div></td></tr><tr><td style="font-weight:bold;vertical-align:top;">db_sessions</td><td style="vertical-align:top;">:</td><td><div>set([])</div></td></tr><tr><td style="font-weight:bold;vertical-align:top;">debugging</td><td style="vertical-align:top;">:</td><td><div>False</div></td></tr><tr><td style="font-weight:bold;vertical-align:top;">gluon_parent</td><td style="vertical-align:top;">:</td><td><div>C:\\Users\\RedBox\\Documents\\GitHub\\Online-Retail-Admin\\web2py</div></td></tr><tr><td style="font-weight:bold;vertical-align:top;">http_accept</td><td style="vertical-align:top;">:</td><td><div>text/html,application/xhtml+xml,application/xml;q=0.9,image/webp,*/*;q=0.8</div></td></tr><tr><td style="font-weight:bold;vertical-align:top;">http_accept_encoding</td><td style="vertical-align:top;">:</td><td><div>gzip, deflate, br</div></td></tr><tr><td style="font-weight:bold;vertical-align:top;">http_accept_language</td><td style="vertical-align:top;">:</td><td><div>en-US,en;q=0.8</div></td></tr><tr><td style="font-weight:bold;vertical-align:top;">http_cache_control</td><td style="vertical-align:top;">:</td><td><div>max-age=0</div></td></tr><tr><td style="font-weight:bold;vertical-align:top;">http_connection</td><td style="vertical-align:top;">:</td><td><div>keep-alive</div></td></tr><tr><td style="font-weight:bold;vertical-align:top;">http_content_length</td><td style="vertical-align:top;">:</td><td><div>693</div></td></tr><tr><td style="font-weight:bold;vertical-align:top;">http_content_type</td><td style="vertical-align:top;">:</td><td><div>multipart/form-data; boundary=----WebKitFormBoundaryThmCAgk5b5QdqVma</div></td></tr><tr><td style="font-weight:bold;vertical-align:top;">http_cookie</td><td style="vertical-align:top;">:</td><td><div>session_id_welcome=127.0.0.1-9defbee5-b5c3-4b51-8a08-fa66b8c0b6e3; session_id_admin=127.0.0.1-0e095fa1-ebce-45f6-9822-e3b4335d165c; session_id_admin_panel=127.0.0.1-b5cf35d0-afcd-4f5b-b8b9-31244eeaed58</div></td></tr><tr><td style="font-weight:bold;vertical-align:top;">http_host</td><td style="vertical-align:top;">:</td><td><div>127.0.0.1:8000</div></td></tr><tr><td style="font-weight:bold;vertical-align:top;">http_origin</td><td style="vertical-align:top;">:</td><td><div>http://127.0.0.1:8000</div></td></tr><tr><td style="font-weight:bold;vertical-align:top;">http_referer</td><td style="vertical-align:top;">:</td><td><div>http://127.0.0.1:8000/Admin_Panel/default/supplier/edit</div></td></tr><tr><td style="font-weight:bold;vertical-align:top;">http_upgrade_insecure_requests</td><td style="vertical-align:top;">:</td><td><div>1</div></td></tr><tr><td style="font-weight:bold;vertical-align:top;">http_user_agent</td><td style="vertical-align:top;">:</td><td><div>Mozilla/5.0 (Windows NT 10.0; Win64; x64) AppleWebKit/537.36 (KHTML, like Gecko) Chrome/54.0.2840.71 Safari/537.36</div></td></tr><tr><td style="font-weight:bold;vertical-align:top;">is_jython</td><td style="vertical-align:top;">:</td><td><div>False</div></td></tr><tr><td style="font-weight:bold;vertical-align:top;">is_pypy</td><td style="vertical-align:top;">:</td><td><div>False</div></td></tr><tr><td style="font-weight:bold;vertical-align:top;">is_source</td><td style="vertical-align:top;">:</td><td><div>True</div></td></tr><tr><td style="font-weight:bold;vertical-align:top;">local_hosts</td><td style="vertical-align:top;">:</td><td><div><table><tr><td><div>10.0.0.163</div></td></tr><tr><td><div>fe80::cdea:eb2:d8cc:b805%13</div></td></tr><tr><td><div>192.168.83.1</div></td></tr><tr><td><div>fe80::20bf:a441:3bde:8fe5%24</div></td></tr><tr><td><div>::ffff:127.0.0.1</div></td></tr><tr><td><div>::1</div></td></tr><tr><td><div>2601:647:ca00:ad45:812c:5af0:45fe:4335</div></td></tr><tr><td><div>DESKTOP-4QFVUT9.hsd1.ca.comcast.net</div></td></tr><tr><td><div>192.168.203.1</div></td></tr><tr><td><div>fe80::f02a:99bf:1488:744b%2</div></td></tr><tr><td><div>DESKTOP-4QFVUT9</div></td></tr><tr><td><div>2601:647:ca00:ad45:f02a:99bf:1488:744b</div></td></tr><tr><td><div>127.0.0.1</div></td></tr></table></div></td></tr><tr><td style="font-weight:bold;vertical-align:top;">path_info</td><td style="vertical-align:top;">:</td><td><div>/Admin_Panel/default/supplier/add</div></td></tr><tr><td style="font-weight:bold;vertical-align:top;">query_string</td><td style="vertical-align:top;">:</td><td><div></div></td></tr><tr><td style="font-weight:bold;vertical-align:top;">remote_addr</td><td style="vertical-align:top;">:</td><td><div>127.0.0.1</div></td></tr><tr><td style="font-weight:bold;vertical-align:top;">remote_port</td><td style="vertical-align:top;">:</td><td><div>57055</div></td></tr><tr><td style="font-weight:bold;vertical-align:top;">request_method</td><td style="vertical-align:top;">:</td><td><div>POST</div></td></tr><tr><td style="font-weight:bold;vertical-align:top;">request_uri</td><td style="vertical-align:top;">:</td><td><div>/Admin_Panel/default/supplier/add</div></td></tr><tr><td style="font-weight:bold;vertical-align:top;">script_name</td><td style="vertical-align:top;">:</td><td><div></div></td></tr><tr><td style="font-weight:bold;vertical-align:top;">server_name</td><td style="vertical-align:top;">:</td><td><div>DESKTOP-4QFVUT9</div></td></tr><tr><td style="font-weight:bold;vertical-align:top;">server_port</td><td style="vertical-align:top;">:</td><td><div>8000</div></td></tr><tr><td style="font-weight:bold;vertical-align:top;">server_protocol</td><td style="vertical-align:top;">:</td><td><div>HTTP/1.1</div></td></tr><tr><td style="font-weight:bold;vertical-align:top;">server_software</td><td style="vertical-align:top;">:</td><td><div>Rocket 1.2.6</div></td></tr><tr><td style="font-weight:bold;vertical-align:top;">web2py_path</td><td style="vertical-align:top;">:</td><td><div>C:\\Users\\RedBox\\Documents\\GitHub\\Online-Retail-Admin\\web2py</div></td></tr><tr><td style="font-weight:bold;vertical-align:top;">web2py_version</td><td style="vertical-align:top;">:</td><td><div>2.14.6-stable+timestamp.2016.05.10.00.21.47</div></td></tr><tr><td style="font-weight:bold;vertical-align:top;">wsgi.errors</td><td style="vertical-align:top;">:</td><td><div>&lt;open file &#x27;&lt;stderr&gt;&#x27;, mode &#x27;w&#x27; at 0x0315D0D0&gt;</div></td></tr><tr><td style="font-weight:bold;vertical-align:top;">wsgi.file_wrapper</td><td style="vertical-align:top;">:</td><td><div>&lt;class wsgiref.util.FileWrapper at 0x04117AE8&gt;</div></td></tr><tr><td style="font-weight:bold;vertical-align:top;">wsgi.input</td><td style="vertical-align:top;">:</td><td><div>&lt;socket._fileobject object at 0x0AF4B970&gt;</div></td></tr><tr><td style="font-weight:bold;vertical-align:top;">wsgi.multiprocess</td><td style="vertical-align:top;">:</td><td><div>False</div></td></tr><tr><td style="font-weight:bold;vertical-align:top;">wsgi.multithread</td><td style="vertical-align:top;">:</td><td><div>True</div></td></tr><tr><td style="font-weight:bold;vertical-align:top;">wsgi.run_once</td><td style="vertical-align:top;">:</td><td><div>False</div></td></tr><tr><td style="font-weight:bold;vertical-align:top;">wsgi.url_scheme</td><td style="vertical-align:top;">:</td><td><div>http</div></td></tr><tr><td style="font-weight:bold;vertical-align:top;">wsgi.version</td><td style="vertical-align:top;">:</td><td><div><table><tr><td><div>1</div></td></tr><tr><td><div>0</div></td></tr></table></div></td></tr><tr><td style="font-weight:bold;vertical-align:top;">wsgi_errors</td><td style="vertical-align:top;">:</td><td><div>&lt;open file &#x27;&lt;stderr&gt;&#x27;, mode &#x27;w&#x27; at 0x0315D0D0&gt;</div></td></tr><tr><td style="font-weight:bold;vertical-align:top;">wsgi_file_wrapper</td><td style="vertical-align:top;">:</td><td><div>&lt;class wsgiref.util.FileWrapper at 0x04117AE8&gt;</div></td></tr><tr><td style="font-weight:bold;vertical-align:top;">wsgi_input</td><td style="vertical-align:top;">:</td><td><div>&lt;socket._fileobject object at 0x0AF4B970&gt;</div></td></tr><tr><td style="font-weight:bold;vertical-align:top;">wsgi_multiprocess</td><td style="vertical-align:top;">:</td><td><div>False</div></td></tr><tr><td style="font-weight:bold;vertical-align:top;">wsgi_multithread</td><td style="vertical-align:top;">:</td><td><div>True</div></td></tr><tr><td style="font-weight:bold;vertical-align:top;">wsgi_run_once</td><td style="vertical-align:top;">:</td><td><div>False</div></td></tr><tr><td style="font-weight:bold;vertical-align:top;">wsgi_url_scheme</td><td style="vertical-align:top;">:</td><td><div>http</div></td></tr><tr><td style="font-weight:bold;vertical-align:top;">wsgi_version</td><td style="vertical-align:top;">:</td><td><div><table><tr><td><div>1</div></td></tr><tr><td><div>0</div></td></tr></table></div></td></tr></table></div></td></tr><tr><td style="font-weight:bold;vertical-align:top;">extension</td><td style="vertical-align:top;">:</td><td><div>html</div></td></tr><tr><td style="font-weight:bold;vertical-align:top;">folder</td><td style="vertical-align:top;">:</td><td><div>C:\\Users\\RedBox\\Documents\\GitHub\\Online-Retail-Admin\\web2py\\applications\\Admin_Panel\\</div></td></tr><tr><td style="font-weight:bold;vertical-align:top;">function</td><td style="vertical-align:top;">:</td><td><div>supplier</div></td></tr><tr><td style="font-weight:bold;vertical-align:top;">global_settings</td><td style="vertical-align:top;">:</td><td><div><table><tr><td style="font-weight:bold;vertical-align:top;">app_folders</td><td style="vertical-align:top;">:</td><td><div>set([&#x27;C:\\\\Users\\\\RedBox\\\\Documents\\\\GitHub\\\\Online-Retail-Admin\\\\web2py\\\\applications\\\\welcome\\\\&#x27;, &#x27;C:\\\\Users\\\\RedBox\\\\Documents\\\\GitHub\\\\Online-Retail-Admin\\\\web2py\\\\applications\\\\Admin_Panel\\\\&#x27;, &#x27;C:\\\\Users\\\\RedBox\\\\Documents\\\\GitHub\\\\Online-Retail-Admin\\\\web2py\\\\applications\\\\admin\\\\&#x27;])</div></td></tr><tr><td style="font-weight:bold;vertical-align:top;">applications_parent</td><td style="vertical-align:top;">:</td><td><div>C:\\Users\\RedBox\\Documents\\GitHub\\Online-Retail-Admin\\web2py</div></td></tr><tr><td style="font-weight:bold;vertical-align:top;">cmd_args</td><td style="vertical-align:top;">:</td><td><div><table></table></div></td></tr><tr><td style="font-weight:bold;vertical-align:top;">cmd_options</td><td style="vertical-align:top;">:</td><td><div>&lt;Values at 0x415b080: {&#x27;verbose&#x27;: False, &#x27;ip&#x27;: &#x27;127.0.0.1&#x27;, &#x27;debuglevel&#x27;: 30, &#x27;with_scheduler&#x27;: False, &#x27;shutdown_timeout&#x27;: 5, &#x27;taskbar&#x27;: False, &#x27;with_coverage&#x27;: False, &#x27;pid_filename&#x27;: &#x27;httpserver.pid&#x27;, &#x27;maxthreads&#x27;: None, &#x27;softcron&#x27;: False, &#x27;server_name&#x27;: &#x27;DESKTOP-4QFVUT9&#x27;, &#x27;bpython&#x27;: False, &#x27;nogui&#x27;: False, &#x27;port&#x27;: 8000, &#x27;print_errors&#x27;: False, &#x27;extcron&#x27;: False, &#x27;runcron&#x27;: False, &#x27;run_system_tests&#x27;: False, &#x27;test&#x27;: None, &#x27;folder&#x27;: &#x27;C:\\\\Users\\\\RedBox\\\\Documents\\\\GitHub\\\\Online-Retail-Admin\\\\web2py&#x27;, &#x27;config&#x27;: &#x27;&#x27;, &#x27;minthreads&#x27;: None, &#x27;shell&#x27;: None, &#x27;run&#x27;: &#x27;&#x27;, &#x27;log_filename&#x27;: &#x27;httpserver.log&#x27;, &#x27;profiler_dir&#x27;: None, &#x27;args&#x27;: [&#x27;&#x27;], &#x27;socket_timeout&#x27;: 5, &#x27;ssl_ca_certificate&#x27;: None, &#x27;scheduler&#x27;: None, &#x27;interfaces&#x27;: None, &#x27;ssl_private_key&#x27;: &#x27;&#x27;, &#x27;gae&#x27;: None, &#x27;password&#x27;: &#x27;******&#x27;, &#x27;request_queue_size&#x27;: 5, &#x27;ssl_certificate&#x27;: &#x27;&#x27;, &#x27;cronjob&#x27;: False, &#x27;numthreads&#x27;: None, &#x27;quiet&#x27;: False, &#x27;import_models&#x27;: False, &#x27;timeout&#x27;: 10, &#x27;plain&#x27;: False, &#x27;nobanner&#x27;: False}&gt;</div></td></tr><tr><td style="font-weight:bold;vertical-align:top;">db_sessions</td><td style="vertical-align:top;">:</td><td><div>set([])</div></td></tr><tr><td style="font-weight:bold;vertical-align:top;">debugging</td><td style="vertical-align:top;">:</td><td><div>False</div></td></tr><tr><td style="font-weight:bold;vertical-align:top;">gluon_parent</td><td style="vertical-align:top;">:</td><td><div>C:\\Users\\RedBox\\Documents\\GitHub\\Online-Retail-Admin\\web2py</div></td></tr><tr><td style="font-weight:bold;vertical-align:top;">is_jython</td><td style="vertical-align:top;">:</td><td><div>False</div></td></tr><tr><td style="font-weight:bold;vertical-align:top;">is_pypy</td><td style="vertical-align:top;">:</td><td><div>False</div></td></tr><tr><td style="font-weight:bold;vertical-align:top;">is_source</td><td style="vertical-align:top;">:</td><td><div>True</div></td></tr><tr><td style="font-weight:bold;vertical-align:top;">local_hosts</td><td style="vertical-align:top;">:</td><td><div><table><tr><td><div>10.0.0.163</div></td></tr><tr><td><div>fe80::cdea:eb2:d8cc:b805%13</div></td></tr><tr><td><div>192.168.83.1</div></td></tr><tr><td><div>fe80::20bf:a441:3bde:8fe5%24</div></td></tr><tr><td><div>::ffff:127.0.0.1</div></td></tr><tr><td><div>::1</div></td></tr><tr><td><div>2601:647:ca00:ad45:812c:5af0:45fe:4335</div></td></tr><tr><td><div>DESKTOP-4QFVUT9.hsd1.ca.comcast.net</div></td></tr><tr><td><div>192.168.203.1</div></td></tr><tr><td><div>fe80::f02a:99bf:1488:744b%2</div></td></tr><tr><td><div>DESKTOP-4QFVUT9</div></td></tr><tr><td><div>2601:647:ca00:ad45:f02a:99bf:1488:744b</div></td></tr><tr><td><div>127.0.0.1</div></td></tr></table></div></td></tr><tr><td style="font-weight:bold;vertical-align:top;">web2py_version</td><td style="vertical-align:top;">:</td><td><div>2.14.6-stable+timestamp.2016.05.10.00.21.47</div></td></tr></table></div></td></tr><tr><td style="font-weight:bold;vertical-align:top;">is_https</td><td style="vertical-align:top;">:</td><td><div>False</div></td></tr><tr><td style="font-weight:bold;vertical-align:top;">is_local</td><td style="vertical-align:top;">:</td><td><div>True</div></td></tr><tr><td style="font-weight:bold;vertical-align:top;">is_restful</td><td style="vertical-align:top;">:</td><td><div>False</div></td></tr><tr><td style="font-weight:bold;vertical-align:top;">is_scheduler</td><td style="vertical-align:top;">:</td><td><div>False</div></td></tr><tr><td style="font-weight:bold;vertical-align:top;">is_shell</td><td style="vertical-align:top;">:</td><td><div>False</div></td></tr><tr><td style="font-weight:bold;vertical-align:top;">now</td><td style="vertical-align:top;">:</td><td><div>datetime.datetime(2016, 11, 13, 21, 2, 27, 542000)</div></td></tr><tr><td style="font-weight:bold;vertical-align:top;">raw_args</td><td style="vertical-align:top;">:</td><td><div>add</div></td></tr><tr><td style="font-weight:bold;vertical-align:top;">raw_extension</td><td style="vertical-align:top;">:</td><td><div>None</div></td></tr><tr><td style="font-weight:bold;vertical-align:top;">url</td><td style="vertical-align:top;">:</td><td><div>/Admin_Panel/default/supplier/add</div></td></tr><tr><td style="font-weight:bold;vertical-align:top;">utcnow</td><td style="vertical-align:top;">:</td><td><div>datetime.datetime(2016, 11, 14, 5, 2, 27, 542000)</div></td></tr><tr><td style="font-weight:bold;vertical-align:top;">wsgi</td><td style="vertical-align:top;">:</td><td><div>&lt;gluon.main.LazyWSGI object at 0x0AF61A90&gt;</div></td></tr></table></div>'
tRp64
sS'frames'
p65
(lp66
(dp67
S'file'
p68
S'C:\\Users\\RedBox\\Documents\\GitHub\\Online-Retail-Admin\\web2py\\gluon\\restricted.py'
p69
sS'dump'
p70
(dp71
S'environment'
p72
S"{'A': <class 'gluon.html.A'>, 'ANY_OF': <class 'gluon.validators.ANY_OF'>, 'ASSIGNJS': <function ASSIGNJS>, 'AppConfig': <function AppConfig>, 'Auth': <class 'gluon.tools.Auth'>, 'B': <class 'gluon.html.B'>, 'BEAUTIFY': <class 'gluon.html.BEAUTIFY'>, 'BODY': <class 'gluon.html.BODY'>, 'BR': <class 'gluon.html.BR'>, 'BUTTON': <class 'gluon.html.BUTTON'>, ...}"
p73
sS'ccode'
p74
S'<code object <module> at 0AF5F770, file "C:\\User...ons\\Admin_Panel\\controllers/default.py", line 10>'
p75
ssS'lnum'
p76
I227
sS'lines'
p77
(dp78
I224
S'            ccode = code'
p79
sI225
S'        else:'
p80
sI226
S'            ccode = compile2(code, layer)'
p81
sI227
S'        exec ccode in environment'
p82
sI228
S'    except HTTP:'
p83
sI229
S'        raise'
p84
sI230
S'    except RestrictedError:'
p85
sI231
S'        # do not encapsulate (obfuscate) the original RestrictedError'
p86
sI222
S'    try:'
p87
sI223
S'        if isinstance(code, types.CodeType):'
p88
ssS'call'
p89
S"(code='# -*- coding: utf-8 -*-\\n# this file is released ...ice()\\n\\nresponse._vars=response._caller(supplier)\\n', environment={'A': <class 'gluon.html.A'>, 'ANY_OF': <class 'gluon.validators.ANY_OF'>, 'ASSIGNJS': <function ASSIGNJS>, 'AppConfig': <function AppConfig>, 'Auth': <class 'gluon.tools.Auth'>, 'B': <class 'gluon.html.B'>, 'BEAUTIFY': <class 'gluon.html.BEAUTIFY'>, 'BODY': <class 'gluon.html.BODY'>, 'BR': <class 'gluon.html.BR'>, 'BUTTON': <class 'gluon.html.BUTTON'>, ...}, layer=r'C:\\Users\\RedBox\\Documents\\GitHub\\Online-Retail-A...y\\applications\\Admin_Panel\\controllers/default.py')"
p90
sS'func'
p91
S'restricted'
p92
sa(dp93
g68
S'C:\\Users\\RedBox\\Documents\\GitHub\\Online-Retail-Admin\\web2py\\applications\\Admin_Panel\\controllers\\default.py'
p94
sg70
(dp95
sg76
I166
sg77
(dp96
I160
S'    http://..../[app]/default/call/jsonrpc'
p97
sI161
S'    decorate with @services.jsonrpc the functions to expose'
p98
sI162
S'    supports xml, json, xmlrpc, jsonrpc, amfrpc, rss, csv'
p99
sI163
S'    """'
p100
sI164
S'    return service()'
p101
sI155
S''
sI156
S''
sI157
S'def call():'
p102
sI158
S'    """'
p103
sI159
S'    exposes services. for example:'
p104
ssg89
S'()'
p105
sg91
S'<module>'
p106
sa(dp107
g68
S'C:\\Users\\RedBox\\Documents\\GitHub\\Online-Retail-Admin\\web2py\\gluon\\globals.py'
p108
sg70
(dp109
S'self'
p110
S'undefined'
p111
sS'f'
S'<function supplier>'
p112
ssg76
I417
sg77
(dp113
I416
S'        self._vars = None'
p114
sI417
S'        self._caller = lambda f: f()'
p115
sI418
S'        self._view_environment = None'
p116
sI419
S'        self._custom_commit = None'
p117
sI420
S'        self._custom_rollback = None'
p118
sI421
S"        self.generic_patterns = ['*']"
p119
sI412
S"        self.flash = ''            # used by the default view layout"
p120
sI413
S'        self.meta = Storage()      # used by web2py_ajax.html'
p121
sI414
S'        self.menu = []             # used by the default view layout'
p122
sI415
S'        self.files = []            # used by web2py_ajax.html'
p123
ssg89
S'(f=<function supplier>)'
p124
sg91
S'<lambda>'
p125
sa(dp126
g68
S'C:\\Users\\RedBox\\Documents\\GitHub\\Online-Retail-Admin\\web2py\\applications\\Admin_Panel\\controllers\\default.py'
p127
sg70
(dp128
S'request.vars.contact_phone'
p129
S"'848-778-7894'"
p130
sS'added'
p131
g111
sS'global request'
p132
S"<Storage {'_vars': <Storage {'status': 'Active',...ail-Admin\\\\web2py\\\\applications\\\\Admin_Panel\\\\'}>"
p133
sS'db.executesql'
p134
S'<bound method DAL.executesql of <DAL uri="mssql4:******@hotkeycc.com/devora">>'
p135
sS'request.vars.contact_email'
p136
S"'amir@gmail.com'"
p137
sS'request.vars.contact_first'
p138
S"'Amir'"
p139
sS'request.vars.contact_last'
p140
S"'Shahinpour'"
p141
sS'api_key'
p142
S"'132sdfas5485'"
p143
sS'api_address'
p144
S"'http://sup3.com/api'"
p145
sS'request.vars.status'
p146
S"'Active'"
p147
sS'global db'
p148
S'<DAL uri="mssql4:******@hotkeycc.com/devora">'
p149
sS'request.vars'
p150
S"<Storage {'status': 'Active', 'contact_first': '... 'Joy Gateway', 'contact_phone': '848-778-7894'}>"
p151
sS'request.vars.supplier_name'
p152
S"'Joy Gateway'"
p153
ssg76
I113
sg77
(dp154
I108
S'    suppliers = db.executesql("SELECT * FROM supplier", as_dict=True)'
p155
sI109
S'    print "inside supplier()"'
p156
sI110
S"    if request.args(0) == 'add':"
p157
sI111
S'        api_key = "132sdfas5485"'
p158
sI112
S'        api_address = "http://sup3.com/api"'
p159
sI113
S'        added = db.executesql("INSERT INTO supplier (supplier_name, status, contact_first, contact_last, contact_phone, contact_email, api_key, api_address) VALUES (\'"+request.vars.supplier_name+"\', \'"+request.vars.status+"\', \'"+request.vars.contact_first+"\', \'"+request.vars.contact_last+"\', \'"+request.vars.contact_phone+"\', \'"+request.vars.contact_email+"\', \'"+api_key+"\', \'"+api_address+"\')")'
p160
sI114
S"    elif request.args(0) == 'edit':"
p161
sI115
S'        print(request.vars.supplier_id, "hello")'
p162
sI116
S'        api_key = "132sdfas5485"'
p163
sI117
S'        api_address = "http://sup3.com/api"'
p164
ssg89
S'()'
p165
sg91
S'supplier'
p166
sa(dp167
g68
S'C:\\Users\\RedBox\\Documents\\GitHub\\Online-Retail-Admin\\web2py\\gluon\\packages\\dal\\pydal\\base.py'
p168
sg70
(dp169
S'query'
p170
S'"INSERT INTO supplier (supplier_name, status, con...mail.com\', \'132sdfas5485\', \'http://sup3.com/api\')"'
p171
sS'adapter'
p172
S'<pydal.adapters.mssql.MSSQL4Adapter object>'
p173
sS'adapter.execute'
p174
S'<bound method MSSQL4Adapter.execute of <pydal.adapters.mssql.MSSQL4Adapter object>>'
p175
ssg76
I1019
sg77
(dp176
I1014
S'        """'
p177
sI1015
S'        adapter = self._adapter'
p178
sI1016
S'        if placeholders:'
p179
sI1017
S'            adapter.execute(query, placeholders)'
p180
sI1018
S'        else:'
p181
sI1019
S'            adapter.execute(query)'
p182
sI1020
S'        if as_dict or as_ordered_dict:'
p183
sI1021
S"            if not hasattr(adapter.cursor,'description'):"
p184
sI1022
S'                raise RuntimeError("database does not support executesql(...,as_dict=True)")'
p185
sI1023
S'            # Non-DAL legacy db query, converts cursor results to dict.'
p186
ssg89
S'(self=<DAL uri="mssql4:******@hotkeycc.com/devora">, query="INSERT INTO supplier (supplier_name, status, con...mail.com\', \'132sdfas5485\', \'http://sup3.com/api\')", placeholders=None, as_dict=False, fields=None, colnames=None, as_ordered_dict=False)'
p187
sg91
S'executesql'
p188
sa(dp189
g68
S'C:\\Users\\RedBox\\Documents\\GitHub\\Online-Retail-Admin\\web2py\\gluon\\packages\\dal\\pydal\\adapters\\base.py'
p190
sg70
(dp191
S'a'
S'("INSERT INTO supplier (supplier_name, status, con...mail.com\', \'132sdfas5485\', \'http://sup3.com/api\')",)'
p192
sS'self'
p193
S'<pydal.adapters.mssql.MSSQL4Adapter object>'
p194
sS'b'
S'{}'
p195
sS'self.log_execute'
p196
S'<bound method MSSQL4Adapter.log_execute of <pydal.adapters.mssql.MSSQL4Adapter object>>'
p197
ssg76
I1388
sg77
(dp198
I1383
S'        self.db._timings.append((command,time.time()-t0))'
p199
sI1384
S'        del self.db._timings[:-TIMINGSSIZE]'
p200
sI1385
S'        return ret'
p201
sI1386
S''
sI1387
S'    def execute(self, *a, **b):'
p202
sI1388
S'        return self.log_execute(*a, **b)'
p203
sI1389
S''
sI1390
S'    def execute_test_query(self):'
p204
sI1391
S'        return self.execute(self.test_query)'
p205
sI1392
S''
ssg89
S'(self=<pydal.adapters.mssql.MSSQL4Adapter object>, *a=("INSERT INTO supplier (supplier_name, status, con...mail.com\', \'132sdfas5485\', \'http://sup3.com/api\')",), **b={})'
p206
sg91
S'execute'
p207
sa(dp208
g68
S'C:\\Users\\RedBox\\Documents\\GitHub\\Online-Retail-Admin\\web2py\\gluon\\packages\\dal\\pydal\\adapters\\base.py'
p209
sg70
(dp210
S'a'
S'("INSERT INTO supplier (supplier_name, status, con...mail.com\', \'132sdfas5485\', \'http://sup3.com/api\')",)'
p211
sS'b'
g195
sS'self'
p212
S'<pydal.adapters.mssql.MSSQL4Adapter object>'
p213
sS'ret'
p214
g111
sS'command'
p215
S'"INSERT INTO supplier (supplier_name, status, con...mail.com\', \'132sdfas5485\', \'http://sup3.com/api\')"'
p216
sS'self.get_cursor'
p217
S'<bound method MSSQL4Adapter.get_cursor of <pydal.adapters.mssql.MSSQL4Adapter object>>'
p218
sS').execute'
p219
g111
ssg76
I1382
sg77
(dp220
I1377
S'            command = self.filter_sql_command(command)'
p221
sI1378
S'        if self.db._debug:'
p222
sI1379
S"            self.db.logger.debug('SQL: %s' % command)"
p223
sI1380
S'        self.db._lastsql = command'
p224
sI1381
S'        t0 = time.time()'
p225
sI1382
S'        ret = self.get_cursor().execute(command, *a[1:], **b)'
p226
sI1383
S'        self.db._timings.append((command,time.time()-t0))'
p227
sI1384
S'        del self.db._timings[:-TIMINGSSIZE]'
p228
sI1385
S'        return ret'
p229
sI1386
S''
ssg89
S'(self=<pydal.adapters.mssql.MSSQL4Adapter object>, *a=("INSERT INTO supplier (supplier_name, status, con...mail.com\', \'132sdfas5485\', \'http://sup3.com/api\')",), **b={})'
p230
sg91
S'log_execute'
p231
sa(dp232
g68
S'C:\\Users\\RedBox\\Documents\\GitHub\\Online-Retail-Admin\\web2py\\gluon\\contrib\\pypyodbc.py'
p233
sg70
(dp234
S'query_string'
p235
S'"INSERT INTO supplier (supplier_name, status, con...mail.com\', \'132sdfas5485\', \'http://sup3.com/api\')"'
p236
sS'self'
p237
S'<gluon.contrib.pypyodbc.Cursor instance>'
p238
sS'self.execdirect'
p239
S'<bound method Cursor.execdirect of <gluon.contrib.pypyodbc.Cursor instance>>'
p240
ssg76
I1605
sg77
(dp241
I1600
S'                self._NumOfRows()'
p242
sI1601
S'                self._UpdateDesc()'
p243
sI1602
S'                #self._BindCols()'
p244
sI1603
S''
sI1604
S'        else:'
p245
sI1605
S'            self.execdirect(query_string)'
p246
sI1606
S'        return self'
p247
sI1607
S''
sI1608
S''
sI1609
S'    def _SQLExecute(self):'
p248
ssg89
S'(self=<gluon.contrib.pypyodbc.Cursor instance>, query_string="INSERT INTO supplier (supplier_name, status, con...mail.com\', \'132sdfas5485\', \'http://sup3.com/api\')", params=None, many_mode=False, call_mode=False)'
p249
sg91
g207
sa(dp250
g68
S'C:\\Users\\RedBox\\Documents\\GitHub\\Online-Retail-Admin\\web2py\\gluon\\contrib\\pypyodbc.py'
p251
sg70
(dp252
S'self'
p253
S'<gluon.contrib.pypyodbc.Cursor instance>'
p254
sS'global check_success'
p255
S'<function check_success>'
p256
sS'ret'
p257
S'-1'
p258
ssg76
I1631
sg77
(dp259
I1632
S'        self._NumOfRows()'
p260
sI1633
S'        self._UpdateDesc()'
p261
sI1634
S'        #self._BindCols()'
p262
sI1635
S'        return self'
p263
sI1626
S'            c_query_string = wchar_pointer(UCS_buf(query_string))'
p264
sI1627
S'            ret = ODBC_API.SQLExecDirectW(self.stmt_h, c_query_string, len(query_string))'
p265
sI1628
S'        else:'
p266
sI1629
S'            c_query_string = ctypes.c_char_p(query_string)'
p267
sI1630
S'            ret = ODBC_API.SQLExecDirect(self.stmt_h, c_query_string, len(query_string))'
p268
sI1631
S'        check_success(self, ret)'
p269
ssg89
S'(self=<gluon.contrib.pypyodbc.Cursor instance>, query_string="INSERT INTO supplier (supplier_name, status, con...mail.com\', \'132sdfas5485\', \'http://sup3.com/api\')")'
p270
sg91
S'execdirect'
p271
sa(dp272
g68
S'C:\\Users\\RedBox\\Documents\\GitHub\\Online-Retail-Admin\\web2py\\gluon\\contrib\\pypyodbc.py'
p273
sg70
(dp274
S'ODBC_obj'
p275
S'<gluon.contrib.pypyodbc.Cursor instance>'
p276
sS'global ctrl_err'
p277
S'<function ctrl_err>'
p278
sS'ret'
p279
S'-1'
p280
sS'ODBC_obj.stmt_h'
p281
S'c_void_p(75778680)'
p282
sS'global SQL_HANDLE_STMT'
p283
S'3'
sS'ODBC_obj.ansi'
p284
S'False'
p285
ssg76
I986
sg77
(dp286
I981
S''
sI982
S'def check_success(ODBC_obj, ret):'
p287
sI983
S'    """ Validate return value, if not success, raise exceptions based on the handle """'
p288
sI984
S'    if ret not in (SQL_SUCCESS, SQL_SUCCESS_WITH_INFO, SQL_NO_DATA):'
p289
sI985
S'        if isinstance(ODBC_obj, Cursor):'
p290
sI986
S'            ctrl_err(SQL_HANDLE_STMT, ODBC_obj.stmt_h, ret, ODBC_obj.ansi)'
p291
sI987
S'        elif isinstance(ODBC_obj, Connection):'
p292
sI988
S'            ctrl_err(SQL_HANDLE_DBC, ODBC_obj.dbc_h, ret, ODBC_obj.ansi)'
p293
sI989
S'        else:'
p294
sI990
S'            ctrl_err(SQL_HANDLE_ENV, ODBC_obj, ret, False)'
p295
ssg89
S'(ODBC_obj=<gluon.contrib.pypyodbc.Cursor instance>, ret=-1)'
p296
sg91
S'check_success'
p297
sa(dp298
g68
S'C:\\Users\\RedBox\\Documents\\GitHub\\Online-Retail-Admin\\web2py\\gluon\\contrib\\pypyodbc.py'
p299
sg70
(dp300
S'state'
p301
S"u'23000'"
p302
sS'global IntegrityError'
p303
S"<class 'gluon.contrib.pypyodbc.IntegrityError'>"
p304
sS'err_text'
p305
S'u"[23000] [Microsoft][ODBC SQL Server Driver][SQ...lier\'. The duplicate key value is (Joy Gateway)."'
p306
ssg76
I958
sg77
(dp307
I960
S'                raise NotSupportedError(state,err_text)'
p308
sI961
S"            elif state in (raw_s('HYT00'),raw_s('HYT01')):"
p309
sI962
S'                raise OperationalError(state,err_text)'
p310
sI953
S"            if state[:2] in (raw_s('24'),raw_s('25'),raw_s('42')):"
p311
sI954
S'                raise ProgrammingError(state,err_text)'
p312
sI955
S"            elif state[:2] in (raw_s('22')):"
p313
sI956
S'                raise DataError(state,err_text)'
p314
sI957
S"            elif state[:2] in (raw_s('23')) or state == raw_s('40002'):"
p315
sI958
S'                raise IntegrityError(state,err_text)'
p316
sI959
S"            elif state == raw_s('0A000'):"
p317
ssg89
S'(ht=3, h=c_void_p(75778680), val_ret=-1, ansi=False)'
p318
sg91
S'ctrl_err'
p319
sasS'pyver'
p320
S'Python 2.7.12: C:\\Python27\\python2.exe (prefix: C:\\Python27)'
p321
sS'session'
p322
g63
(S's\x1a\x00\x00\x00<div><table></table></div>'
tRp323
sS'etype'
p324
S"<class 'gluon.contrib.pypyodbc.IntegrityError'>"
p325
sS'date'
p326
S'Sun Nov 13 21:02:27 2016'
p327
sS'response'
p328
g63
(S's\x92\x1e\x00\x00<div><table><tr><td style="font-weight:bold;vertical-align:top;">body</td><td style="vertical-align:top;">:</td><td><div>&lt;cStringIO.StringO object at 0x0ACBB720&gt;</div></td></tr><tr><td style="font-weight:bold;vertical-align:top;">cookies</td><td style="vertical-align:top;">:</td><td><div><table><tr><td style="font-weight:bold;vertical-align:top;">session_id_admin_panel</td><td style="vertical-align:top;">:</td><td><div>127.0.0.1-3a9e89f1-9629-4350-b4ad-8e49cb0d273f<table><tr><td style="font-weight:bold;vertical-align:top;">comment</td><td style="vertical-align:top;">:</td><td><div></div></td></tr><tr><td style="font-weight:bold;vertical-align:top;">domain</td><td style="vertical-align:top;">:</td><td><div></div></td></tr><tr><td style="font-weight:bold;vertical-align:top;">expires</td><td style="vertical-align:top;">:</td><td><div></div></td></tr><tr><td style="font-weight:bold;vertical-align:top;">httponly</td><td style="vertical-align:top;">:</td><td><div></div></td></tr><tr><td style="font-weight:bold;vertical-align:top;">max-age</td><td style="vertical-align:top;">:</td><td><div></div></td></tr><tr><td style="font-weight:bold;vertical-align:top;">path</td><td style="vertical-align:top;">:</td><td><div>/</div></td></tr><tr><td style="font-weight:bold;vertical-align:top;">secure</td><td style="vertical-align:top;">:</td><td><div></div></td></tr><tr><td style="font-weight:bold;vertical-align:top;">version</td><td style="vertical-align:top;">:</td><td><div></div></td></tr></table></div></td></tr></table></div></td></tr><tr><td style="font-weight:bold;vertical-align:top;">delimiters</td><td style="vertical-align:top;">:</td><td><div><table><tr><td><div>{{</div></td></tr><tr><td><div>}}</div></td></tr></table></div></td></tr><tr><td style="font-weight:bold;vertical-align:top;">files</td><td style="vertical-align:top;">:</td><td><div><table></table></div></td></tr><tr><td style="font-weight:bold;vertical-align:top;">flash</td><td style="vertical-align:top;">:</td><td><div></div></td></tr><tr><td style="font-weight:bold;vertical-align:top;">form_label_separator</td><td style="vertical-align:top;">:</td><td><div></div></td></tr><tr><td style="font-weight:bold;vertical-align:top;">formstyle</td><td style="vertical-align:top;">:</td><td><div>bootstrap3_inline</div></td></tr><tr><td style="font-weight:bold;vertical-align:top;">generic_patterns</td><td style="vertical-align:top;">:</td><td><div><table><tr><td><div>*</div></td></tr></table></div></td></tr><tr><td style="font-weight:bold;vertical-align:top;">google_analytics_id</td><td style="vertical-align:top;">:</td><td><div>None</div></td></tr><tr><td style="font-weight:bold;vertical-align:top;">headers</td><td style="vertical-align:top;">:</td><td><div><table><tr><td style="font-weight:bold;vertical-align:top;">X-Powered-By</td><td style="vertical-align:top;">:</td><td><div>web2py</div></td></tr></table></div></td></tr><tr><td style="font-weight:bold;vertical-align:top;">logo</td><td style="vertical-align:top;">:</td><td><div><a class="navbar-brand" href="http://www.web2py.com/" id="web2py-logo"><b>web<span>2</span>py</b>&trade;&nbsp;</a></div></td></tr><tr><td style="font-weight:bold;vertical-align:top;">menu</td><td style="vertical-align:top;">:</td><td><div><table><tr><td><div><table><tr><td><div>Home</div></td></tr><tr><td><div>False</div></td></tr><tr><td><div>/Admin_Panel/default/index</div></td></tr><tr><td><div><table></table></div></td></tr></table></div></td></tr><tr><td><div><table><tr><td><div>Bar Chart</div></td></tr><tr><td><div>False</div></td></tr><tr><td><div>/Admin_Panel/default/chart_bars</div></td></tr></table></div></td></tr><tr><td><div><table><tr><td><div>Product</div></td></tr><tr><td><div>False</div></td></tr><tr><td><div>/Admin_Panel/default/product</div></td></tr></table></div></td></tr><tr><td><div><table><tr><td><div>Suppliers</div></td></tr><tr><td><div>False</div></td></tr><tr><td><div>/Admin_Panel/default/supplier</div></td></tr></table></div></td></tr><tr><td><div><table><tr><td><div>Statistics</div></td></tr><tr><td><div>False</div></td></tr><tr><td><div>/Admin_Panel/default/stats</div></td></tr></table></div></td></tr></table></div></td></tr><tr><td style="font-weight:bold;vertical-align:top;">meta</td><td style="vertical-align:top;">:</td><td><div><table><tr><td style="font-weight:bold;vertical-align:top;">author</td><td style="vertical-align:top;">:</td><td><div>None</div></td></tr><tr><td style="font-weight:bold;vertical-align:top;">description</td><td style="vertical-align:top;">:</td><td><div>None</div></td></tr><tr><td style="font-weight:bold;vertical-align:top;">generator</td><td style="vertical-align:top;">:</td><td><div>None</div></td></tr><tr><td style="font-weight:bold;vertical-align:top;">keywords</td><td style="vertical-align:top;">:</td><td><div>None</div></td></tr></table></div></td></tr><tr><td style="font-weight:bold;vertical-align:top;">models_to_run</td><td style="vertical-align:top;">:</td><td><div><table><tr><td><div>^\\w+\\.py$</div></td></tr><tr><td><div>^default/\\w+\\.py$</div></td></tr><tr><td><div>^default/supplier/\\w+\\.py$</div></td></tr></table></div></td></tr><tr><td style="font-weight:bold;vertical-align:top;">postprocessing</td><td style="vertical-align:top;">:</td><td><div><table></table></div></td></tr><tr><td style="font-weight:bold;vertical-align:top;">session_client</td><td style="vertical-align:top;">:</td><td><div>127.0.0.1</div></td></tr><tr><td style="font-weight:bold;vertical-align:top;">session_cookie_compression_level</td><td style="vertical-align:top;">:</td><td><div>None</div></td></tr><tr><td style="font-weight:bold;vertical-align:top;">session_cookie_expires</td><td style="vertical-align:top;">:</td><td><div>None</div></td></tr><tr><td style="font-weight:bold;vertical-align:top;">session_data_name</td><td style="vertical-align:top;">:</td><td><div>session_data_admin_panel</div></td></tr><tr><td style="font-weight:bold;vertical-align:top;">session_file</td><td style="vertical-align:top;">:</td><td><div>None</div></td></tr><tr><td style="font-weight:bold;vertical-align:top;">session_filename</td><td style="vertical-align:top;">:</td><td><div>C:\\Users\\RedBox\\Documents\\GitHub\\Online-Retail-Admin\\web2py\\applications\\Admin_Panel\\sessions\\127.0.0.1-3a9e89f1-9629-4350-b4ad-8e49cb0d273f</div></td></tr><tr><td style="font-weight:bold;vertical-align:top;">session_hash</td><td style="vertical-align:top;">:</td><td><div>c0762cbf4baf7f9af97c051e7fcb8083</div></td></tr><tr><td style="font-weight:bold;vertical-align:top;">session_id</td><td style="vertical-align:top;">:</td><td><div>127.0.0.1-3a9e89f1-9629-4350-b4ad-8e49cb0d273f</div></td></tr><tr><td style="font-weight:bold;vertical-align:top;">session_id_name</td><td style="vertical-align:top;">:</td><td><div>session_id_admin_panel</div></td></tr><tr><td style="font-weight:bold;vertical-align:top;">session_masterapp</td><td style="vertical-align:top;">:</td><td><div>Admin_Panel</div></td></tr><tr><td style="font-weight:bold;vertical-align:top;">session_new</td><td style="vertical-align:top;">:</td><td><div>True</div></td></tr><tr><td style="font-weight:bold;vertical-align:top;">session_storage_type</td><td style="vertical-align:top;">:</td><td><div>file</div></td></tr><tr><td style="font-weight:bold;vertical-align:top;">status</td><td style="vertical-align:top;">:</td><td><div>200</div></td></tr><tr><td style="font-weight:bold;vertical-align:top;">subtitle</td><td style="vertical-align:top;">:</td><td><div></div></td></tr><tr><td style="font-weight:bold;vertical-align:top;">title</td><td style="vertical-align:top;">:</td><td><div>Admin Panel</div></td></tr><tr><td style="font-weight:bold;vertical-align:top;">view</td><td style="vertical-align:top;">:</td><td><div>default/supplier.html</div></td></tr></table></div>'
tRp329
sS'locals'
p330
(dp331
S'err_list'
p332
S'[(u\'23000\', u"[Microsoft][ODBC SQL Server Driver][SQL Server...lier\'. The duplicate key value is (Joy Gateway).", 2627), (u\'01000\', u\'[Microsoft][ODBC SQL Server Driver][SQL Server]The statement has been terminated.\', 3621)]'
p333
sS'h'
S'c_void_p(75778680)'
p334
sS'raw_s'
p335
S"<type 'unicode'>"
p336
sS'ht'
p337
S'3'
sS'Buffer_len'
p338
S'c_short(0)'
p339
sS'ansi'
p340
g285
sS'state'
p341
S"u'23000'"
p342
sS'ODBC_func'
p343
S'<_FuncPtr object>'
p344
sS'ret'
p345
S'100'
p346
sS'Message'
p347
S'<ctypes.c_wchar_Array_4096 object>'
p348
sS'val_ret'
p349
S'-1'
p350
sS'number_errors'
p351
S'3'
sS'NativeError'
p352
S'c_long(3621)'
p353
sS'err_text'
p354
S'u"[23000] [Microsoft][ODBC SQL Server Driver][SQ...lier\'. The duplicate key value is (Joy Gateway)."'
p355
sssS'traceback'
p356
S'Traceback (most recent call last):\n  File "C:\\Users\\RedBox\\Documents\\GitHub\\Online-Retail-Admin\\web2py\\gluon\\restricted.py", line 227, in restricted\n    exec ccode in environment\n  File "C:\\Users\\RedBox\\Documents\\GitHub\\Online-Retail-Admin\\web2py\\applications\\Admin_Panel\\controllers/default.py", line 166, in <module>\n  File "C:\\Users\\RedBox\\Documents\\GitHub\\Online-Retail-Admin\\web2py\\gluon\\globals.py", line 417, in <lambda>\n    self._caller = lambda f: f()\n  File "C:\\Users\\RedBox\\Documents\\GitHub\\Online-Retail-Admin\\web2py\\applications\\Admin_Panel\\controllers/default.py", line 113, in supplier\n    added = db.executesql("INSERT INTO supplier (supplier_name, status, contact_first, contact_last, contact_phone, contact_email, api_key, api_address) VALUES (\'"+request.vars.supplier_name+"\', \'"+request.vars.status+"\', \'"+request.vars.contact_first+"\', \'"+request.vars.contact_last+"\', \'"+request.vars.contact_phone+"\', \'"+request.vars.contact_email+"\', \'"+api_key+"\', \'"+api_address+"\')")\n  File "C:\\Users\\RedBox\\Documents\\GitHub\\Online-Retail-Admin\\web2py\\gluon\\packages\\dal\\pydal\\base.py", line 1019, in executesql\n    adapter.execute(query)\n  File "C:\\Users\\RedBox\\Documents\\GitHub\\Online-Retail-Admin\\web2py\\gluon\\packages\\dal\\pydal\\adapters\\base.py", line 1388, in execute\n    return self.log_execute(*a, **b)\n  File "C:\\Users\\RedBox\\Documents\\GitHub\\Online-Retail-Admin\\web2py\\gluon\\packages\\dal\\pydal\\adapters\\base.py", line 1382, in log_execute\n    ret = self.get_cursor().execute(command, *a[1:], **b)\n  File "C:\\Users\\RedBox\\Documents\\GitHub\\Online-Retail-Admin\\web2py\\gluon\\contrib\\pypyodbc.py", line 1605, in execute\n    self.execdirect(query_string)\n  File "C:\\Users\\RedBox\\Documents\\GitHub\\Online-Retail-Admin\\web2py\\gluon\\contrib\\pypyodbc.py", line 1631, in execdirect\n    check_success(self, ret)\n  File "C:\\Users\\RedBox\\Documents\\GitHub\\Online-Retail-Admin\\web2py\\gluon\\contrib\\pypyodbc.py", line 986, in check_success\n    ctrl_err(SQL_HANDLE_STMT, ODBC_obj.stmt_h, ret, ODBC_obj.ansi)\n  File "C:\\Users\\RedBox\\Documents\\GitHub\\Online-Retail-Admin\\web2py\\gluon\\contrib\\pypyodbc.py", line 958, in ctrl_err\n    raise IntegrityError(state,err_text)\nIntegrityError: (u\'23000\', u"[23000] [Microsoft][ODBC SQL Server Driver][SQL Server]Violation of UNIQUE KEY constraint \'supplier$supplier_name\'. Cannot insert duplicate key in object \'dbo.supplier\'. The duplicate key value is (Joy Gateway).")\n'
p357
s.