(dp1
S'output'
p2
S'<class \'gluon.contrib.pypyodbc.ProgrammingError\'> (u\'42000\', u"[42000] [Microsoft][ODBC SQL Server Driver][SQL Server]View or function \'get_product\' is not updatable because the modification affects multiple base tables.")'
p3
sS'layer'
p4
S'D:\\online-retail\\Online-Retail-Admin\\web2py\\applications\\Admin_Panel\\controllers/default.py'
p5
sS'code'
p6
S'# -*- coding: utf-8 -*-\n# this file is released under public domain and you can use without limitations\n\n# -------------------------------------------------------------------------\n# This is a sample controller\n# - index is the default action of any application\n# - user is required for authentication and authorization\n# - download is for downloading files uploaded in the db (does streaming)\n# -------------------------------------------------------------------------\nfrom urlparse import urlparse\nimport json\n\ndef parse_url(url):\n    o = urlparse(url)\n    return str(o[2][1:]).split(\'/\')\n\ndef index():\n    """\n    example action using the internationalization operator T and flash\n    rendered by views/default/index.html or views/generic.html\n\n    if you need a simple wiki simply replace the two lines below with:\n    return auth.wiki()\n    """\n    url = parse_url(request.url)\n    print url\n    return dict(location=T(\'Admin Panel - Index\'))\n\ndef add_product():\n    supplier_association_id = request.vars.id\n    query = "insert into inventory_info select * from product_info where " \\\n            "product_info_id in (select product_info_id from get_product where supplier_association_id = " + supplier_association_id + ")"\n    db.executesql(query)\n    query = "insert into devora.dbo.inventory (product_info_id ,title ,price ,discounted_price ,color_name ,color_code ,color_group ,size_name ,size_order ,length ,width ,height ,unit ,weight ,status) select product_info_id ,title ,price ,discounted_price ,color_name ,color_code ,color_group ,size_name ,size_order ,length ,width ,height ,unit ,weight ,status from product where product_id in (select product_id from get_product where supplier_association_id = " + supplier_association_id + ")"\n    db.executesql(query)\n    response_code = 1\n    return response_code\n\n\ndef products():\n    test = db.executesql(\'select * from get_product\', as_dict=True)\n    return dict(location=T(\'Admin Panel - Products\'),test=test)\n\ndef edit_product():\n    supplier_association_id = request.vars.id\n    price = request.vars.price\n    cost = request.vars.cost\n    title = request.vars.title\n    desc = request.vars.desc\n    color = request.vars.color.decode(\'string_escape\')\n    size = request.vars.size.decode(\'string_escape\')\n    supplier_sku = request.vars.supplier_sku.decode(\'string_escape\')\n    supplier_name = request.vars.supplier_name.decode(\'string_escape\')\n    manufacturer = request.vars.manufacturer.decode(\'string_escape\')\n\n\n    # edits = ", ".join(data.edits)\n    # response_code = db_edit_product(data.supplier_association_id, edits)\n    query = "update get_product set manufacturer=\'"+manufacturer+"\' ,supplier_name=\'"+supplier_name+"\' ,supplier_sku=\'"+supplier_sku+"\', color_name = \'"+color+"\', size_name = \'"+size+"\',description=\'"+desc+"\',title=\'"+title+"\',cost=\'"+cost+"\',price=\'"+price+"\' where supplier_association_id = \'" + supplier_association_id+"\'"\n    print query\n    db.executesql(query)\n    # response_code = 1\n    # return dict(response_code=response_code)\n\n# def db_edit_product(supplier_association_id, edits):\n\n\ndef chart_bars():\n    meses_chart="[\'Candy\', \'Bread\', \'Milk\', \'Coffee\']" #Change this dynamically\n    dados_chart="[3.5, 4, 5, 2]" #Change this dynamically\n    title="Online-Retail-Admin"\n    stitle="Products` Report"\n    dados_map={}\n    dados_map["dados"]=dados_chart\n    dados_map["meses"]=meses_chart\n    dados_map[\'titulo\']=title\n    dados_map[\'subtitulo\']=stitle\n\n    chart="""\n\n        Highcharts.setOptions({\n            lang:{\n            downloadJPEG: "Download em imagem JPG",\n            downloadPDF: "Download em documento PDF",\n            downloadPNG: "Download em imagem PNG",\n            downloadSVG: "Download em vetor SVG",\n            loading: "Lendo...",\n            noData: "Sem dados para mostrar",\n            printChart: "Imprimir Gr\xc3\xa1fico",\n            }\n            });\n\n                // Build the chart\n                $(\'#chart\').highcharts({\n            chart: {\n                type: \'column\'\n            },\n            title: {\n                text: \'%(titulo)s\'\n            },\n            subtitle: {\n                text: \'%(subtitulo)s\'\n            },\n            xAxis: {\n                categories: %(meses)s,\n                crosshair: true\n            },\n            yAxis: {\n                min: 0,\n                title: {\n                    text: \'Money($)\'\n                }\n            },\n            tooltip: {\n                headerFormat: \'<span style="font-size:10px">{point.key}</span><table>\',\n                pointFormat: \'<tr><td style="color:{series.color};padding:0">{series.name}: </td>\' +\n                \'<td style="padding:0"><b>R$ {point.y:.1f} </b></td></tr>\',\n                footerFormat: \'</table>\',\n                shared: true,\n                useHTML: true\n            },\n            plotOptions: {\n                column: {\n                    pointPadding: 0.2,\n                    borderWidth: 0\n                }\n            },\n            credits:{enabled:false},\n            series: [{\n                name: \'Products\',\n                data: %(dados)s\n\n            }]\n        });\n\n       """ %dados_map\n    return dict(chart=XML(\'<script>\'+chart+\'</script>\'))\n\ndef stats():\n    return dict(location=T(\'Admin Panel - Stats\'))\n\ndef supplier():\n    return dict(location=T(\'Admin Panel - Suppliers\'))\n\ndef inventory():\n    return dict(location=T(\'Admin Panel - Inventory\'))\n\ndef implement():\n    return dict(location=T(\'Admin Panel - Implement\'))\n\ndef user():\n    """\n    exposes:\n    http://..../[app]/default/user/login\n    http://..../[app]/default/user/logout\n    http://..../[app]/default/user/register\n    http://..../[app]/default/user/profile\n    http://..../[app]/default/user/retrieve_password\n    http://..../[app]/default/user/change_password\n    http://..../[app]/default/user/bulk_register\n    use @auth.requires_login()\n        @auth.requires_membership(\'group name\')\n        @auth.requires_permission(\'read\',\'table name\',record_id)\n    to decorate functions that need access control\n    also notice there is http://..../[app]/appadmin/manage/auth to allow administrator to manage users\n    """\n    return dict(form=auth())\n\n\n@cache.action()\ndef download():\n    """\n    allows downloading of uploaded files\n    http://..../[app]/default/download/[filename]\n    """\n    return response.download(request, db)\n\n\ndef call():\n    """\n    exposes services. for example:\n    http://..../[app]/default/call/jsonrpc\n    decorate with @services.jsonrpc the functions to expose\n    supports xml, json, xmlrpc, jsonrpc, amfrpc, rss, csv\n    """\n    return service()\n\nresponse._vars=response._caller(edit_product)\n'
p7
sS'snapshot'
p8
(dp9
S'exception'
p10
(dp11
S'__module__'
p12
S"'gluon.contrib.pypyodbc'"
p13
sS'__getslice__'
p14
S"<method-wrapper '__getslice__' of ProgrammingError object>"
p15
sS'__str__'
p16
S"<method-wrapper '__str__' of ProgrammingError object>"
p17
sS'__reduce__'
p18
S'<built-in method __reduce__ of ProgrammingError object>'
p19
sS'__dict__'
p20
S'{\'value\': (u\'42000\', u"[42000] [Microsoft][ODBC SQL Server Driver][SQ...e the modification affects multiple base tables.")}'
p21
sS'__sizeof__'
p22
S'<built-in method __sizeof__ of ProgrammingError object>'
p23
sS'__weakref__'
p24
S'None'
p25
sS'__init__'
p26
S'<bound method ProgrammingError.__init__ of Progr...the modification affects multiple base tables.")>'
p27
sS'__setattr__'
p28
S"<method-wrapper '__setattr__' of ProgrammingError object>"
p29
sS'__reduce_ex__'
p30
S'<built-in method __reduce_ex__ of ProgrammingError object>'
p31
sS'__new__'
p32
S'<built-in method __new__ of type object>'
p33
sS'__format__'
p34
S'<built-in method __format__ of ProgrammingError object>'
p35
sS'__class__'
p36
S"<class 'gluon.contrib.pypyodbc.ProgrammingError'>"
p37
sS'__doc__'
p38
S'None'
p39
sS'__getitem__'
p40
S"<method-wrapper '__getitem__' of ProgrammingError object>"
p41
sS'__setstate__'
p42
S'<built-in method __setstate__ of ProgrammingError object>'
p43
sS'__getattribute__'
p44
S"<method-wrapper '__getattribute__' of ProgrammingError object>"
p45
sS'args'
p46
S'(u\'42000\', u"[42000] [Microsoft][ODBC SQL Server Driver][SQ...e the modification affects multiple base tables.")'
p47
sS'__subclasshook__'
p48
S'<built-in method __subclasshook__ of type object>'
p49
sS'__unicode__'
p50
S'<built-in method __unicode__ of ProgrammingError object>'
p51
sS'value'
p52
S'(u\'42000\', u"[42000] [Microsoft][ODBC SQL Server Driver][SQ...e the modification affects multiple base tables.")'
p53
sS'__delattr__'
p54
S"<method-wrapper '__delattr__' of ProgrammingError object>"
p55
sS'__repr__'
p56
S"<method-wrapper '__repr__' of ProgrammingError object>"
p57
sS'__hash__'
p58
S"<method-wrapper '__hash__' of ProgrammingError object>"
p59
ssS'evalue'
p60
S'(u\'42000\', u"[42000] [Microsoft][ODBC SQL Server Driver][SQL Server]View or function \'get_product\' is not updatable because the modification affects multiple base tables.")'
p61
sS'request'
p62
cgluon.html
XML_unpickle
p63
(S's\xc8\x8f\x00\x00<div><table><tr><td style="font-weight:bold;vertical-align:top;">ajax</td><td style="vertical-align:top;">:</td><td><div>True</div></td></tr><tr><td style="font-weight:bold;vertical-align:top;">application</td><td style="vertical-align:top;">:</td><td><div>Admin_Panel</div></td></tr><tr><td style="font-weight:bold;vertical-align:top;">args</td><td style="vertical-align:top;">:</td><td><div><table></table></div></td></tr><tr><td style="font-weight:bold;vertical-align:top;">cid</td><td style="vertical-align:top;">:</td><td><div>None</div></td></tr><tr><td style="font-weight:bold;vertical-align:top;">client</td><td style="vertical-align:top;">:</td><td><div>127.0.0.1</div></td></tr><tr><td style="font-weight:bold;vertical-align:top;">controller</td><td style="vertical-align:top;">:</td><td><div>default</div></td></tr><tr><td style="font-weight:bold;vertical-align:top;">cookies</td><td style="vertical-align:top;">:</td><td><div><table><tr><td style="font-weight:bold;vertical-align:top;">eyemaxinc</td><td style="vertical-align:top;">:</td><td><div>a%3A5%3A%7Bs%3A10%3A%22session_id%22%3Bs%3A32%3A%22e1f7b2a19fa021ca0c8637811a1737e7%22%3Bs%3A10%3A%22ip_address%22%3Bs%3A9%3A%22127.0.0.1%22%3Bs%3A10%3A%22user_agent%22%3Bs%3A109%3A%22Mozilla%2F5.0+%28Windows+NT+6.1%3B+WOW64%29+AppleWebKit%2F537.36+%28KHTML%2C+like+Gecko%29+Chrome%2F52.0.2743.116+Safari%2F537.36%22%3Bs%3A13%3A%22last_activity%22%3Bi%3A1472070919%3Bs%3A9%3A%22user_data%22%3Bs%3A0%3A%22%22%3B%7D4b73fe89543de401fd26ab3aed567a55<table><tr><td style="font-weight:bold;vertical-align:top;">comment</td><td style="vertical-align:top;">:</td><td><div></div></td></tr><tr><td style="font-weight:bold;vertical-align:top;">domain</td><td style="vertical-align:top;">:</td><td><div></div></td></tr><tr><td style="font-weight:bold;vertical-align:top;">expires</td><td style="vertical-align:top;">:</td><td><div></div></td></tr><tr><td style="font-weight:bold;vertical-align:top;">httponly</td><td style="vertical-align:top;">:</td><td><div></div></td></tr><tr><td style="font-weight:bold;vertical-align:top;">max-age</td><td style="vertical-align:top;">:</td><td><div></div></td></tr><tr><td style="font-weight:bold;vertical-align:top;">path</td><td style="vertical-align:top;">:</td><td><div></div></td></tr><tr><td style="font-weight:bold;vertical-align:top;">secure</td><td style="vertical-align:top;">:</td><td><div></div></td></tr><tr><td style="font-weight:bold;vertical-align:top;">version</td><td style="vertical-align:top;">:</td><td><div></div></td></tr></table></div></td></tr><tr><td style="font-weight:bold;vertical-align:top;">session_id_admin</td><td style="vertical-align:top;">:</td><td><div>127.0.0.1-859a262a-4997-41fa-8cb3-c0ec71f83d85<table><tr><td style="font-weight:bold;vertical-align:top;">comment</td><td style="vertical-align:top;">:</td><td><div></div></td></tr><tr><td style="font-weight:bold;vertical-align:top;">domain</td><td style="vertical-align:top;">:</td><td><div></div></td></tr><tr><td style="font-weight:bold;vertical-align:top;">expires</td><td style="vertical-align:top;">:</td><td><div></div></td></tr><tr><td style="font-weight:bold;vertical-align:top;">httponly</td><td style="vertical-align:top;">:</td><td><div></div></td></tr><tr><td style="font-weight:bold;vertical-align:top;">max-age</td><td style="vertical-align:top;">:</td><td><div></div></td></tr><tr><td style="font-weight:bold;vertical-align:top;">path</td><td style="vertical-align:top;">:</td><td><div></div></td></tr><tr><td style="font-weight:bold;vertical-align:top;">secure</td><td style="vertical-align:top;">:</td><td><div></div></td></tr><tr><td style="font-weight:bold;vertical-align:top;">version</td><td style="vertical-align:top;">:</td><td><div></div></td></tr></table></div></td></tr><tr><td style="font-weight:bold;vertical-align:top;">session_id_admin_panel</td><td style="vertical-align:top;">:</td><td><div>127.0.0.1-653c0168-0c94-4d7b-a1dd-58da1a1b6743<table><tr><td style="font-weight:bold;vertical-align:top;">comment</td><td style="vertical-align:top;">:</td><td><div></div></td></tr><tr><td style="font-weight:bold;vertical-align:top;">domain</td><td style="vertical-align:top;">:</td><td><div></div></td></tr><tr><td style="font-weight:bold;vertical-align:top;">expires</td><td style="vertical-align:top;">:</td><td><div></div></td></tr><tr><td style="font-weight:bold;vertical-align:top;">httponly</td><td style="vertical-align:top;">:</td><td><div></div></td></tr><tr><td style="font-weight:bold;vertical-align:top;">max-age</td><td style="vertical-align:top;">:</td><td><div></div></td></tr><tr><td style="font-weight:bold;vertical-align:top;">path</td><td style="vertical-align:top;">:</td><td><div></div></td></tr><tr><td style="font-weight:bold;vertical-align:top;">secure</td><td style="vertical-align:top;">:</td><td><div></div></td></tr><tr><td style="font-weight:bold;vertical-align:top;">version</td><td style="vertical-align:top;">:</td><td><div></div></td></tr></table></div></td></tr><tr><td style="font-weight:bold;vertical-align:top;">session_id_app3</td><td style="vertical-align:top;">:</td><td><div>1:f97e37ac-8ac7-4d2a-be5a-6fa651fa80a5<table><tr><td style="font-weight:bold;vertical-align:top;">comment</td><td style="vertical-align:top;">:</td><td><div></div></td></tr><tr><td style="font-weight:bold;vertical-align:top;">domain</td><td style="vertical-align:top;">:</td><td><div></div></td></tr><tr><td style="font-weight:bold;vertical-align:top;">expires</td><td style="vertical-align:top;">:</td><td><div></div></td></tr><tr><td style="font-weight:bold;vertical-align:top;">httponly</td><td style="vertical-align:top;">:</td><td><div></div></td></tr><tr><td style="font-weight:bold;vertical-align:top;">max-age</td><td style="vertical-align:top;">:</td><td><div></div></td></tr><tr><td style="font-weight:bold;vertical-align:top;">path</td><td style="vertical-align:top;">:</td><td><div></div></td></tr><tr><td style="font-weight:bold;vertical-align:top;">secure</td><td style="vertical-align:top;">:</td><td><div></div></td></tr><tr><td style="font-weight:bold;vertical-align:top;">version</td><td style="vertical-align:top;">:</td><td><div></div></td></tr></table></div></td></tr><tr><td style="font-weight:bold;vertical-align:top;">session_id_hw2</td><td style="vertical-align:top;">:</td><td><div>27:3cae75e7-b24c-4fb2-9b20-7ba5592c95ac<table><tr><td style="font-weight:bold;vertical-align:top;">comment</td><td style="vertical-align:top;">:</td><td><div></div></td></tr><tr><td style="font-weight:bold;vertical-align:top;">domain</td><td style="vertical-align:top;">:</td><td><div></div></td></tr><tr><td style="font-weight:bold;vertical-align:top;">expires</td><td style="vertical-align:top;">:</td><td><div></div></td></tr><tr><td style="font-weight:bold;vertical-align:top;">httponly</td><td style="vertical-align:top;">:</td><td><div></div></td></tr><tr><td style="font-weight:bold;vertical-align:top;">max-age</td><td style="vertical-align:top;">:</td><td><div></div></td></tr><tr><td style="font-weight:bold;vertical-align:top;">path</td><td style="vertical-align:top;">:</td><td><div></div></td></tr><tr><td style="font-weight:bold;vertical-align:top;">secure</td><td style="vertical-align:top;">:</td><td><div></div></td></tr><tr><td style="font-weight:bold;vertical-align:top;">version</td><td style="vertical-align:top;">:</td><td><div></div></td></tr></table></div></td></tr><tr><td style="font-weight:bold;vertical-align:top;">session_id_hw3</td><td style="vertical-align:top;">:</td><td><div>1:ae466643-f418-4ae8-a3f6-d4a7832c0604<table><tr><td style="font-weight:bold;vertical-align:top;">comment</td><td style="vertical-align:top;">:</td><td><div></div></td></tr><tr><td style="font-weight:bold;vertical-align:top;">domain</td><td style="vertical-align:top;">:</td><td><div></div></td></tr><tr><td style="font-weight:bold;vertical-align:top;">expires</td><td style="vertical-align:top;">:</td><td><div></div></td></tr><tr><td style="font-weight:bold;vertical-align:top;">httponly</td><td style="vertical-align:top;">:</td><td><div></div></td></tr><tr><td style="font-weight:bold;vertical-align:top;">max-age</td><td style="vertical-align:top;">:</td><td><div></div></td></tr><tr><td style="font-weight:bold;vertical-align:top;">path</td><td style="vertical-align:top;">:</td><td><div></div></td></tr><tr><td style="font-weight:bold;vertical-align:top;">secure</td><td style="vertical-align:top;">:</td><td><div></div></td></tr><tr><td style="font-weight:bold;vertical-align:top;">version</td><td style="vertical-align:top;">:</td><td><div></div></td></tr></table></div></td></tr><tr><td style="font-weight:bold;vertical-align:top;">session_id_myhw3</td><td style="vertical-align:top;">:</td><td><div>1:6cb683b0-a53a-4861-887e-da659affb81a<table><tr><td style="font-weight:bold;vertical-align:top;">comment</td><td style="vertical-align:top;">:</td><td><div></div></td></tr><tr><td style="font-weight:bold;vertical-align:top;">domain</td><td style="vertical-align:top;">:</td><td><div></div></td></tr><tr><td style="font-weight:bold;vertical-align:top;">expires</td><td style="vertical-align:top;">:</td><td><div></div></td></tr><tr><td style="font-weight:bold;vertical-align:top;">httponly</td><td style="vertical-align:top;">:</td><td><div></div></td></tr><tr><td style="font-weight:bold;vertical-align:top;">max-age</td><td style="vertical-align:top;">:</td><td><div></div></td></tr><tr><td style="font-weight:bold;vertical-align:top;">path</td><td style="vertical-align:top;">:</td><td><div></div></td></tr><tr><td style="font-weight:bold;vertical-align:top;">secure</td><td style="vertical-align:top;">:</td><td><div></div></td></tr><tr><td style="font-weight:bold;vertical-align:top;">version</td><td style="vertical-align:top;">:</td><td><div></div></td></tr></table></div></td></tr><tr><td style="font-weight:bold;vertical-align:top;">session_id_ready_hw3</td><td style="vertical-align:top;">:</td><td><div>1:761ed93c-257f-4757-adc8-e7ee007964d8<table><tr><td style="font-weight:bold;vertical-align:top;">comment</td><td style="vertical-align:top;">:</td><td><div></div></td></tr><tr><td style="font-weight:bold;vertical-align:top;">domain</td><td style="vertical-align:top;">:</td><td><div></div></td></tr><tr><td style="font-weight:bold;vertical-align:top;">expires</td><td style="vertical-align:top;">:</td><td><div></div></td></tr><tr><td style="font-weight:bold;vertical-align:top;">httponly</td><td style="vertical-align:top;">:</td><td><div></div></td></tr><tr><td style="font-weight:bold;vertical-align:top;">max-age</td><td style="vertical-align:top;">:</td><td><div></div></td></tr><tr><td style="font-weight:bold;vertical-align:top;">path</td><td style="vertical-align:top;">:</td><td><div></div></td></tr><tr><td style="font-weight:bold;vertical-align:top;">secure</td><td style="vertical-align:top;">:</td><td><div></div></td></tr><tr><td style="font-weight:bold;vertical-align:top;">version</td><td style="vertical-align:top;">:</td><td><div></div></td></tr></table></div></td></tr><tr><td style="font-weight:bold;vertical-align:top;">session_id_somehw3</td><td style="vertical-align:top;">:</td><td><div>127.0.0.1-7c5009a2-0e62-4a16-909d-9daa42307677<table><tr><td style="font-weight:bold;vertical-align:top;">comment</td><td style="vertical-align:top;">:</td><td><div></div></td></tr><tr><td style="font-weight:bold;vertical-align:top;">domain</td><td style="vertical-align:top;">:</td><td><div></div></td></tr><tr><td style="font-weight:bold;vertical-align:top;">expires</td><td style="vertical-align:top;">:</td><td><div></div></td></tr><tr><td style="font-weight:bold;vertical-align:top;">httponly</td><td style="vertical-align:top;">:</td><td><div></div></td></tr><tr><td style="font-weight:bold;vertical-align:top;">max-age</td><td style="vertical-align:top;">:</td><td><div></div></td></tr><tr><td style="font-weight:bold;vertical-align:top;">path</td><td style="vertical-align:top;">:</td><td><div></div></td></tr><tr><td style="font-weight:bold;vertical-align:top;">secure</td><td style="vertical-align:top;">:</td><td><div></div></td></tr><tr><td style="font-weight:bold;vertical-align:top;">version</td><td style="vertical-align:top;">:</td><td><div></div></td></tr></table></div></td></tr><tr><td style="font-weight:bold;vertical-align:top;">session_id_welcome</td><td style="vertical-align:top;">:</td><td><div>127.0.0.1-6eeb27c1-49b2-4377-a466-71e14cec4145<table><tr><td style="font-weight:bold;vertical-align:top;">comment</td><td style="vertical-align:top;">:</td><td><div></div></td></tr><tr><td style="font-weight:bold;vertical-align:top;">domain</td><td style="vertical-align:top;">:</td><td><div></div></td></tr><tr><td style="font-weight:bold;vertical-align:top;">expires</td><td style="vertical-align:top;">:</td><td><div></div></td></tr><tr><td style="font-weight:bold;vertical-align:top;">httponly</td><td style="vertical-align:top;">:</td><td><div></div></td></tr><tr><td style="font-weight:bold;vertical-align:top;">max-age</td><td style="vertical-align:top;">:</td><td><div></div></td></tr><tr><td style="font-weight:bold;vertical-align:top;">path</td><td style="vertical-align:top;">:</td><td><div></div></td></tr><tr><td style="font-weight:bold;vertical-align:top;">secure</td><td style="vertical-align:top;">:</td><td><div></div></td></tr><tr><td style="font-weight:bold;vertical-align:top;">version</td><td style="vertical-align:top;">:</td><td><div></div></td></tr></table></div></td></tr></table></div></td></tr><tr><td style="font-weight:bold;vertical-align:top;">env</td><td style="vertical-align:top;">:</td><td><div><table><tr><td style="font-weight:bold;vertical-align:top;">CONTENT_LENGTH</td><td style="vertical-align:top;">:</td><td><div>0</div></td></tr><tr><td style="font-weight:bold;vertical-align:top;">HTTP_ACCEPT</td><td style="vertical-align:top;">:</td><td><div>*/*</div></td></tr><tr><td style="font-weight:bold;vertical-align:top;">HTTP_ACCEPT_ENCODING</td><td style="vertical-align:top;">:</td><td><div>gzip, deflate, br</div></td></tr><tr><td style="font-weight:bold;vertical-align:top;">HTTP_ACCEPT_LANGUAGE</td><td style="vertical-align:top;">:</td><td><div>en-US,en;q=0.8,fa;q=0.6,es;q=0.4</div></td></tr><tr><td style="font-weight:bold;vertical-align:top;">HTTP_CONNECTION</td><td style="vertical-align:top;">:</td><td><div>keep-alive</div></td></tr><tr><td style="font-weight:bold;vertical-align:top;">HTTP_CONTENT_LENGTH</td><td style="vertical-align:top;">:</td><td><div>0</div></td></tr><tr><td style="font-weight:bold;vertical-align:top;">HTTP_COOKIE</td><td style="vertical-align:top;">:</td><td><div>eyemaxinc=a%3A5%3A%7Bs%3A10%3A%22session_id%22%3Bs%3A32%3A%22e1f7b2a19fa021ca0c8637811a1737e7%22%3Bs%3A10%3A%22ip_address%22%3Bs%3A9%3A%22127.0.0.1%22%3Bs%3A10%3A%22user_agent%22%3Bs%3A109%3A%22Mozilla%2F5.0+%28Windows+NT+6.1%3B+WOW64%29+AppleWebKit%2F537.36+%28KHTML%2C+like+Gecko%29+Chrome%2F52.0.2743.116+Safari%2F537.36%22%3Bs%3A13%3A%22last_activity%22%3Bi%3A1472070919%3Bs%3A9%3A%22user_data%22%3Bs%3A0%3A%22%22%3B%7D4b73fe89543de401fd26ab3aed567a55; session_id_hw2=&quot;27:3cae75e7-b24c-4fb2-9b20-7ba5592c95ac&quot;; session_id_somehw3=127.0.0.1-7c5009a2-0e62-4a16-909d-9daa42307677; session_id_hw3=&quot;1:ae466643-f418-4ae8-a3f6-d4a7832c0604&quot;; session_id_ready_hw3=&quot;1:761ed93c-257f-4757-adc8-e7ee007964d8&quot;; session_id_myhw3=&quot;1:6cb683b0-a53a-4861-887e-da659affb81a&quot;; session_id_app3=&quot;1:f97e37ac-8ac7-4d2a-be5a-6fa651fa80a5&quot;; session_id_welcome=127.0.0.1-6eeb27c1-49b2-4377-a466-71e14cec4145; session_id_admin=127.0.0.1-859a262a-4997-41fa-8cb3-c0ec71f83d85; session_id_admin_panel=127.0.0.1-653c0168-0c94-4d7b-a1dd-58da1a1b6743</div></td></tr><tr><td style="font-weight:bold;vertical-align:top;">HTTP_HOST</td><td style="vertical-align:top;">:</td><td><div>127.0.0.1:8000</div></td></tr><tr><td style="font-weight:bold;vertical-align:top;">HTTP_ORIGIN</td><td style="vertical-align:top;">:</td><td><div>http://127.0.0.1:8000</div></td></tr><tr><td style="font-weight:bold;vertical-align:top;">HTTP_REFERER</td><td style="vertical-align:top;">:</td><td><div>http://127.0.0.1:8000/Admin_Panel/default/products</div></td></tr><tr><td style="font-weight:bold;vertical-align:top;">HTTP_USER_AGENT</td><td style="vertical-align:top;">:</td><td><div>Mozilla/5.0 (Windows NT 6.1; WOW64) AppleWebKit/537.36 (KHTML, like Gecko) Chrome/54.0.2840.71 Safari/537.36</div></td></tr><tr><td style="font-weight:bold;vertical-align:top;">HTTP_X_REQUESTED_WITH</td><td style="vertical-align:top;">:</td><td><div>XMLHttpRequest</div></td></tr><tr><td style="font-weight:bold;vertical-align:top;">PATH_INFO</td><td style="vertical-align:top;">:</td><td><div>/Admin_Panel/default/edit_product</div></td></tr><tr><td style="font-weight:bold;vertical-align:top;">QUERY_STRING</td><td style="vertical-align:top;">:</td><td><div>id=1&amp;title=sister%20MFC-J6925DW%20All-in-One%20Color%20Inkjet%20Printer&amp;desc=Print%20Copy%20Scan%20Fax%20Single%20pass%20duplex%20scan/copy%20Print%20from%20mobile%20wireless%20networking%20new%20printer%20with%20high%20yield%20INKvestment%20catridges&amp;price=697&amp;cost=234.21001&amp;color=greeen&amp;size=xl&amp;manufacturer=brother&amp;supplier_sku=f34ffww&amp;supplier_name=something</div></td></tr><tr><td style="font-weight:bold;vertical-align:top;">REMOTE_ADDR</td><td style="vertical-align:top;">:</td><td><div>127.0.0.1</div></td></tr><tr><td style="font-weight:bold;vertical-align:top;">REMOTE_PORT</td><td style="vertical-align:top;">:</td><td><div>53062</div></td></tr><tr><td style="font-weight:bold;vertical-align:top;">REQUEST_METHOD</td><td style="vertical-align:top;">:</td><td><div>POST</div></td></tr><tr><td style="font-weight:bold;vertical-align:top;">SCRIPT_NAME</td><td style="vertical-align:top;">:</td><td><div></div></td></tr><tr><td style="font-weight:bold;vertical-align:top;">SERVER_NAME</td><td style="vertical-align:top;">:</td><td><div>Amirali-PC</div></td></tr><tr><td style="font-weight:bold;vertical-align:top;">SERVER_PORT</td><td style="vertical-align:top;">:</td><td><div>8000</div></td></tr><tr><td style="font-weight:bold;vertical-align:top;">SERVER_PROTOCOL</td><td style="vertical-align:top;">:</td><td><div>HTTP/1.1</div></td></tr><tr><td style="font-weight:bold;vertical-align:top;">SERVER_SOFTWARE</td><td style="vertical-align:top;">:</td><td><div>Rocket 1.2.6</div></td></tr><tr><td style="font-weight:bold;vertical-align:top;">app_folders</td><td style="vertical-align:top;">:</td><td><div>set([&#x27;D:\\\\online-retail\\\\Online-Retail-Admin\\\\web2py\\\\applications\\\\Admin_Panel\\\\&#x27;, &#x27;D:\\\\online-retail\\\\Online-Retail-Admin\\\\web2py\\\\applications\\\\admin\\\\&#x27;, &#x27;D:\\\\online-retail\\\\Online-Retail-Admin\\\\web2py\\\\applications\\\\welcome\\\\&#x27;])</div></td></tr><tr><td style="font-weight:bold;vertical-align:top;">applications_parent</td><td style="vertical-align:top;">:</td><td><div>D:\\online-retail\\Online-Retail-Admin\\web2py</div></td></tr><tr><td style="font-weight:bold;vertical-align:top;">cmd_args</td><td style="vertical-align:top;">:</td><td><div><table></table></div></td></tr><tr><td style="font-weight:bold;vertical-align:top;">cmd_options</td><td style="vertical-align:top;">:</td><td><div>&lt;Values at 0x362db48: {&#x27;verbose&#x27;: False, &#x27;ip&#x27;: &#x27;127.0.0.1&#x27;, &#x27;debuglevel&#x27;: 30, &#x27;with_scheduler&#x27;: False, &#x27;shutdown_timeout&#x27;: 5, &#x27;taskbar&#x27;: False, &#x27;with_coverage&#x27;: False, &#x27;pid_filename&#x27;: &#x27;httpserver.pid&#x27;, &#x27;maxthreads&#x27;: None, &#x27;softcron&#x27;: False, &#x27;server_name&#x27;: &#x27;Amirali-PC&#x27;, &#x27;bpython&#x27;: False, &#x27;nogui&#x27;: False, &#x27;port&#x27;: 8000, &#x27;print_errors&#x27;: False, &#x27;extcron&#x27;: False, &#x27;runcron&#x27;: False, &#x27;run_system_tests&#x27;: False, &#x27;test&#x27;: None, &#x27;folder&#x27;: &#x27;D:\\\\online-retail\\\\Online-Retail-Admin\\\\web2py&#x27;, &#x27;config&#x27;: &#x27;&#x27;, &#x27;minthreads&#x27;: None, &#x27;shell&#x27;: None, &#x27;run&#x27;: &#x27;&#x27;, &#x27;log_filename&#x27;: &#x27;httpserver.log&#x27;, &#x27;profiler_dir&#x27;: None, &#x27;args&#x27;: [&#x27;&#x27;], &#x27;socket_timeout&#x27;: 5, &#x27;ssl_ca_certificate&#x27;: None, &#x27;scheduler&#x27;: None, &#x27;interfaces&#x27;: None, &#x27;ssl_private_key&#x27;: &#x27;&#x27;, &#x27;gae&#x27;: None, &#x27;password&#x27;: &#x27;******&#x27;, &#x27;request_queue_size&#x27;: 5, &#x27;ssl_certificate&#x27;: &#x27;&#x27;, &#x27;cronjob&#x27;: False, &#x27;numthreads&#x27;: None, &#x27;quiet&#x27;: False, &#x27;import_models&#x27;: False, &#x27;timeout&#x27;: 10, &#x27;plain&#x27;: False, &#x27;nobanner&#x27;: False}&gt;</div></td></tr><tr><td style="font-weight:bold;vertical-align:top;">content_length</td><td style="vertical-align:top;">:</td><td><div>0</div></td></tr><tr><td style="font-weight:bold;vertical-align:top;">db_sessions</td><td style="vertical-align:top;">:</td><td><div>set([])</div></td></tr><tr><td style="font-weight:bold;vertical-align:top;">debugging</td><td style="vertical-align:top;">:</td><td><div>False</div></td></tr><tr><td style="font-weight:bold;vertical-align:top;">gluon_parent</td><td style="vertical-align:top;">:</td><td><div>D:\\online-retail\\Online-Retail-Admin\\web2py</div></td></tr><tr><td style="font-weight:bold;vertical-align:top;">http_accept</td><td style="vertical-align:top;">:</td><td><div>*/*</div></td></tr><tr><td style="font-weight:bold;vertical-align:top;">http_accept_encoding</td><td style="vertical-align:top;">:</td><td><div>gzip, deflate, br</div></td></tr><tr><td style="font-weight:bold;vertical-align:top;">http_accept_language</td><td style="vertical-align:top;">:</td><td><div>en-US,en;q=0.8,fa;q=0.6,es;q=0.4</div></td></tr><tr><td style="font-weight:bold;vertical-align:top;">http_connection</td><td style="vertical-align:top;">:</td><td><div>keep-alive</div></td></tr><tr><td style="font-weight:bold;vertical-align:top;">http_content_length</td><td style="vertical-align:top;">:</td><td><div>0</div></td></tr><tr><td style="font-weight:bold;vertical-align:top;">http_cookie</td><td style="vertical-align:top;">:</td><td><div>eyemaxinc=a%3A5%3A%7Bs%3A10%3A%22session_id%22%3Bs%3A32%3A%22e1f7b2a19fa021ca0c8637811a1737e7%22%3Bs%3A10%3A%22ip_address%22%3Bs%3A9%3A%22127.0.0.1%22%3Bs%3A10%3A%22user_agent%22%3Bs%3A109%3A%22Mozilla%2F5.0+%28Windows+NT+6.1%3B+WOW64%29+AppleWebKit%2F537.36+%28KHTML%2C+like+Gecko%29+Chrome%2F52.0.2743.116+Safari%2F537.36%22%3Bs%3A13%3A%22last_activity%22%3Bi%3A1472070919%3Bs%3A9%3A%22user_data%22%3Bs%3A0%3A%22%22%3B%7D4b73fe89543de401fd26ab3aed567a55; session_id_hw2=&quot;27:3cae75e7-b24c-4fb2-9b20-7ba5592c95ac&quot;; session_id_somehw3=127.0.0.1-7c5009a2-0e62-4a16-909d-9daa42307677; session_id_hw3=&quot;1:ae466643-f418-4ae8-a3f6-d4a7832c0604&quot;; session_id_ready_hw3=&quot;1:761ed93c-257f-4757-adc8-e7ee007964d8&quot;; session_id_myhw3=&quot;1:6cb683b0-a53a-4861-887e-da659affb81a&quot;; session_id_app3=&quot;1:f97e37ac-8ac7-4d2a-be5a-6fa651fa80a5&quot;; session_id_welcome=127.0.0.1-6eeb27c1-49b2-4377-a466-71e14cec4145; session_id_admin=127.0.0.1-859a262a-4997-41fa-8cb3-c0ec71f83d85; session_id_admin_panel=127.0.0.1-653c0168-0c94-4d7b-a1dd-58da1a1b6743</div></td></tr><tr><td style="font-weight:bold;vertical-align:top;">http_host</td><td style="vertical-align:top;">:</td><td><div>127.0.0.1:8000</div></td></tr><tr><td style="font-weight:bold;vertical-align:top;">http_origin</td><td style="vertical-align:top;">:</td><td><div>http://127.0.0.1:8000</div></td></tr><tr><td style="font-weight:bold;vertical-align:top;">http_referer</td><td style="vertical-align:top;">:</td><td><div>http://127.0.0.1:8000/Admin_Panel/default/products</div></td></tr><tr><td style="font-weight:bold;vertical-align:top;">http_user_agent</td><td style="vertical-align:top;">:</td><td><div>Mozilla/5.0 (Windows NT 6.1; WOW64) AppleWebKit/537.36 (KHTML, like Gecko) Chrome/54.0.2840.71 Safari/537.36</div></td></tr><tr><td style="font-weight:bold;vertical-align:top;">http_x_requested_with</td><td style="vertical-align:top;">:</td><td><div>XMLHttpRequest</div></td></tr><tr><td style="font-weight:bold;vertical-align:top;">is_jython</td><td style="vertical-align:top;">:</td><td><div>False</div></td></tr><tr><td style="font-weight:bold;vertical-align:top;">is_pypy</td><td style="vertical-align:top;">:</td><td><div>False</div></td></tr><tr><td style="font-weight:bold;vertical-align:top;">is_source</td><td style="vertical-align:top;">:</td><td><div>True</div></td></tr><tr><td style="font-weight:bold;vertical-align:top;">local_hosts</td><td style="vertical-align:top;">:</td><td><div><table><tr><td><div>fe80::888c:d064:a394:fc1%12</div></td></tr><tr><td><div>2601:647:ca00:ad45:f8e5:53e9:d116:a5</div></td></tr><tr><td><div>::ffff:127.0.0.1</div></td></tr><tr><td><div>::1</div></td></tr><tr><td><div>Amirali-PC.hsd1.ca.comcast.net</div></td></tr><tr><td><div>Amirali-PC</div></td></tr><tr><td><div>2601:647:ca00:ad45:888c:d064:a394:fc1</div></td></tr><tr><td><div>10.0.0.176</div></td></tr><tr><td><div>127.0.0.1</div></td></tr></table></div></td></tr><tr><td style="font-weight:bold;vertical-align:top;">path_info</td><td style="vertical-align:top;">:</td><td><div>/Admin_Panel/default/edit_product</div></td></tr><tr><td style="font-weight:bold;vertical-align:top;">query_string</td><td style="vertical-align:top;">:</td><td><div>id=1&amp;title=sister%20MFC-J6925DW%20All-in-One%20Color%20Inkjet%20Printer&amp;desc=Print%20Copy%20Scan%20Fax%20Single%20pass%20duplex%20scan/copy%20Print%20from%20mobile%20wireless%20networking%20new%20printer%20with%20high%20yield%20INKvestment%20catridges&amp;price=697&amp;cost=234.21001&amp;color=greeen&amp;size=xl&amp;manufacturer=brother&amp;supplier_sku=f34ffww&amp;supplier_name=something</div></td></tr><tr><td style="font-weight:bold;vertical-align:top;">remote_addr</td><td style="vertical-align:top;">:</td><td><div>127.0.0.1</div></td></tr><tr><td style="font-weight:bold;vertical-align:top;">remote_port</td><td style="vertical-align:top;">:</td><td><div>53062</div></td></tr><tr><td style="font-weight:bold;vertical-align:top;">request_method</td><td style="vertical-align:top;">:</td><td><div>POST</div></td></tr><tr><td style="font-weight:bold;vertical-align:top;">request_uri</td><td style="vertical-align:top;">:</td><td><div>/Admin_Panel/default/edit_product?id=1&amp;title=sister%20MFC-J6925DW%20All-in-One%20Color%20Inkjet%20Printer&amp;desc=Print%20Copy%20Scan%20Fax%20Single%20pass%20duplex%20scan/copy%20Print%20from%20mobile%20wireless%20networking%20new%20printer%20with%20high%20yield%20INKvestment%20catridges&amp;price=697&amp;cost=234.21001&amp;color=greeen&amp;size=xl&amp;manufacturer=brother&amp;supplier_sku=f34ffww&amp;supplier_name=something</div></td></tr><tr><td style="font-weight:bold;vertical-align:top;">script_name</td><td style="vertical-align:top;">:</td><td><div></div></td></tr><tr><td style="font-weight:bold;vertical-align:top;">server_name</td><td style="vertical-align:top;">:</td><td><div>Amirali-PC</div></td></tr><tr><td style="font-weight:bold;vertical-align:top;">server_port</td><td style="vertical-align:top;">:</td><td><div>8000</div></td></tr><tr><td style="font-weight:bold;vertical-align:top;">server_protocol</td><td style="vertical-align:top;">:</td><td><div>HTTP/1.1</div></td></tr><tr><td style="font-weight:bold;vertical-align:top;">server_software</td><td style="vertical-align:top;">:</td><td><div>Rocket 1.2.6</div></td></tr><tr><td style="font-weight:bold;vertical-align:top;">web2py_path</td><td style="vertical-align:top;">:</td><td><div>D:\\online-retail\\Online-Retail-Admin\\web2py</div></td></tr><tr><td style="font-weight:bold;vertical-align:top;">web2py_version</td><td style="vertical-align:top;">:</td><td><div>2.14.6-stable+timestamp.2016.05.10.00.21.47</div></td></tr><tr><td style="font-weight:bold;vertical-align:top;">wsgi.errors</td><td style="vertical-align:top;">:</td><td><div>&lt;open file &#x27;&lt;stderr&gt;&#x27;, mode &#x27;w&#x27; at 0x01DCD0D0&gt;</div></td></tr><tr><td style="font-weight:bold;vertical-align:top;">wsgi.file_wrapper</td><td style="vertical-align:top;">:</td><td><div>&lt;class wsgiref.util.FileWrapper at 0x035F3B20&gt;</div></td></tr><tr><td style="font-weight:bold;vertical-align:top;">wsgi.input</td><td style="vertical-align:top;">:</td><td><div>&lt;socket._fileobject object at 0x05E819F0&gt;</div></td></tr><tr><td style="font-weight:bold;vertical-align:top;">wsgi.multiprocess</td><td style="vertical-align:top;">:</td><td><div>False</div></td></tr><tr><td style="font-weight:bold;vertical-align:top;">wsgi.multithread</td><td style="vertical-align:top;">:</td><td><div>True</div></td></tr><tr><td style="font-weight:bold;vertical-align:top;">wsgi.run_once</td><td style="vertical-align:top;">:</td><td><div>False</div></td></tr><tr><td style="font-weight:bold;vertical-align:top;">wsgi.url_scheme</td><td style="vertical-align:top;">:</td><td><div>http</div></td></tr><tr><td style="font-weight:bold;vertical-align:top;">wsgi.version</td><td style="vertical-align:top;">:</td><td><div><table><tr><td><div>1</div></td></tr><tr><td><div>0</div></td></tr></table></div></td></tr><tr><td style="font-weight:bold;vertical-align:top;">wsgi_errors</td><td style="vertical-align:top;">:</td><td><div>&lt;open file &#x27;&lt;stderr&gt;&#x27;, mode &#x27;w&#x27; at 0x01DCD0D0&gt;</div></td></tr><tr><td style="font-weight:bold;vertical-align:top;">wsgi_file_wrapper</td><td style="vertical-align:top;">:</td><td><div>&lt;class wsgiref.util.FileWrapper at 0x035F3B20&gt;</div></td></tr><tr><td style="font-weight:bold;vertical-align:top;">wsgi_input</td><td style="vertical-align:top;">:</td><td><div>&lt;socket._fileobject object at 0x05E819F0&gt;</div></td></tr><tr><td style="font-weight:bold;vertical-align:top;">wsgi_multiprocess</td><td style="vertical-align:top;">:</td><td><div>False</div></td></tr><tr><td style="font-weight:bold;vertical-align:top;">wsgi_multithread</td><td style="vertical-align:top;">:</td><td><div>True</div></td></tr><tr><td style="font-weight:bold;vertical-align:top;">wsgi_run_once</td><td style="vertical-align:top;">:</td><td><div>False</div></td></tr><tr><td style="font-weight:bold;vertical-align:top;">wsgi_url_scheme</td><td style="vertical-align:top;">:</td><td><div>http</div></td></tr><tr><td style="font-weight:bold;vertical-align:top;">wsgi_version</td><td style="vertical-align:top;">:</td><td><div><table><tr><td><div>1</div></td></tr><tr><td><div>0</div></td></tr></table></div></td></tr></table></div></td></tr><tr><td style="font-weight:bold;vertical-align:top;">extension</td><td style="vertical-align:top;">:</td><td><div>html</div></td></tr><tr><td style="font-weight:bold;vertical-align:top;">folder</td><td style="vertical-align:top;">:</td><td><div>D:\\online-retail\\Online-Retail-Admin\\web2py\\applications\\Admin_Panel\\</div></td></tr><tr><td style="font-weight:bold;vertical-align:top;">function</td><td style="vertical-align:top;">:</td><td><div>edit_product</div></td></tr><tr><td style="font-weight:bold;vertical-align:top;">global_settings</td><td style="vertical-align:top;">:</td><td><div><table><tr><td style="font-weight:bold;vertical-align:top;">app_folders</td><td style="vertical-align:top;">:</td><td><div>set([&#x27;D:\\\\online-retail\\\\Online-Retail-Admin\\\\web2py\\\\applications\\\\Admin_Panel\\\\&#x27;, &#x27;D:\\\\online-retail\\\\Online-Retail-Admin\\\\web2py\\\\applications\\\\admin\\\\&#x27;, &#x27;D:\\\\online-retail\\\\Online-Retail-Admin\\\\web2py\\\\applications\\\\welcome\\\\&#x27;])</div></td></tr><tr><td style="font-weight:bold;vertical-align:top;">applications_parent</td><td style="vertical-align:top;">:</td><td><div>D:\\online-retail\\Online-Retail-Admin\\web2py</div></td></tr><tr><td style="font-weight:bold;vertical-align:top;">cmd_args</td><td style="vertical-align:top;">:</td><td><div><table></table></div></td></tr><tr><td style="font-weight:bold;vertical-align:top;">cmd_options</td><td style="vertical-align:top;">:</td><td><div>&lt;Values at 0x362db48: {&#x27;verbose&#x27;: False, &#x27;ip&#x27;: &#x27;127.0.0.1&#x27;, &#x27;debuglevel&#x27;: 30, &#x27;with_scheduler&#x27;: False, &#x27;shutdown_timeout&#x27;: 5, &#x27;taskbar&#x27;: False, &#x27;with_coverage&#x27;: False, &#x27;pid_filename&#x27;: &#x27;httpserver.pid&#x27;, &#x27;maxthreads&#x27;: None, &#x27;softcron&#x27;: False, &#x27;server_name&#x27;: &#x27;Amirali-PC&#x27;, &#x27;bpython&#x27;: False, &#x27;nogui&#x27;: False, &#x27;port&#x27;: 8000, &#x27;print_errors&#x27;: False, &#x27;extcron&#x27;: False, &#x27;runcron&#x27;: False, &#x27;run_system_tests&#x27;: False, &#x27;test&#x27;: None, &#x27;folder&#x27;: &#x27;D:\\\\online-retail\\\\Online-Retail-Admin\\\\web2py&#x27;, &#x27;config&#x27;: &#x27;&#x27;, &#x27;minthreads&#x27;: None, &#x27;shell&#x27;: None, &#x27;run&#x27;: &#x27;&#x27;, &#x27;log_filename&#x27;: &#x27;httpserver.log&#x27;, &#x27;profiler_dir&#x27;: None, &#x27;args&#x27;: [&#x27;&#x27;], &#x27;socket_timeout&#x27;: 5, &#x27;ssl_ca_certificate&#x27;: None, &#x27;scheduler&#x27;: None, &#x27;interfaces&#x27;: None, &#x27;ssl_private_key&#x27;: &#x27;&#x27;, &#x27;gae&#x27;: None, &#x27;password&#x27;: &#x27;******&#x27;, &#x27;request_queue_size&#x27;: 5, &#x27;ssl_certificate&#x27;: &#x27;&#x27;, &#x27;cronjob&#x27;: False, &#x27;numthreads&#x27;: None, &#x27;quiet&#x27;: False, &#x27;import_models&#x27;: False, &#x27;timeout&#x27;: 10, &#x27;plain&#x27;: False, &#x27;nobanner&#x27;: False}&gt;</div></td></tr><tr><td style="font-weight:bold;vertical-align:top;">db_sessions</td><td style="vertical-align:top;">:</td><td><div>set([])</div></td></tr><tr><td style="font-weight:bold;vertical-align:top;">debugging</td><td style="vertical-align:top;">:</td><td><div>False</div></td></tr><tr><td style="font-weight:bold;vertical-align:top;">gluon_parent</td><td style="vertical-align:top;">:</td><td><div>D:\\online-retail\\Online-Retail-Admin\\web2py</div></td></tr><tr><td style="font-weight:bold;vertical-align:top;">is_jython</td><td style="vertical-align:top;">:</td><td><div>False</div></td></tr><tr><td style="font-weight:bold;vertical-align:top;">is_pypy</td><td style="vertical-align:top;">:</td><td><div>False</div></td></tr><tr><td style="font-weight:bold;vertical-align:top;">is_source</td><td style="vertical-align:top;">:</td><td><div>True</div></td></tr><tr><td style="font-weight:bold;vertical-align:top;">local_hosts</td><td style="vertical-align:top;">:</td><td><div><table><tr><td><div>fe80::888c:d064:a394:fc1%12</div></td></tr><tr><td><div>2601:647:ca00:ad45:f8e5:53e9:d116:a5</div></td></tr><tr><td><div>::ffff:127.0.0.1</div></td></tr><tr><td><div>::1</div></td></tr><tr><td><div>Amirali-PC.hsd1.ca.comcast.net</div></td></tr><tr><td><div>Amirali-PC</div></td></tr><tr><td><div>2601:647:ca00:ad45:888c:d064:a394:fc1</div></td></tr><tr><td><div>10.0.0.176</div></td></tr><tr><td><div>127.0.0.1</div></td></tr></table></div></td></tr><tr><td style="font-weight:bold;vertical-align:top;">web2py_version</td><td style="vertical-align:top;">:</td><td><div>2.14.6-stable+timestamp.2016.05.10.00.21.47</div></td></tr></table></div></td></tr><tr><td style="font-weight:bold;vertical-align:top;">is_https</td><td style="vertical-align:top;">:</td><td><div>False</div></td></tr><tr><td style="font-weight:bold;vertical-align:top;">is_local</td><td style="vertical-align:top;">:</td><td><div>True</div></td></tr><tr><td style="font-weight:bold;vertical-align:top;">is_restful</td><td style="vertical-align:top;">:</td><td><div>False</div></td></tr><tr><td style="font-weight:bold;vertical-align:top;">is_scheduler</td><td style="vertical-align:top;">:</td><td><div>False</div></td></tr><tr><td style="font-weight:bold;vertical-align:top;">is_shell</td><td style="vertical-align:top;">:</td><td><div>False</div></td></tr><tr><td style="font-weight:bold;vertical-align:top;">now</td><td style="vertical-align:top;">:</td><td><div>datetime.datetime(2016, 11, 13, 23, 30, 55, 176000)</div></td></tr><tr><td style="font-weight:bold;vertical-align:top;">raw_args</td><td style="vertical-align:top;">:</td><td><div></div></td></tr><tr><td style="font-weight:bold;vertical-align:top;">raw_extension</td><td style="vertical-align:top;">:</td><td><div>None</div></td></tr><tr><td style="font-weight:bold;vertical-align:top;">url</td><td style="vertical-align:top;">:</td><td><div>/Admin_Panel/default/edit_product</div></td></tr><tr><td style="font-weight:bold;vertical-align:top;">utcnow</td><td style="vertical-align:top;">:</td><td><div>datetime.datetime(2016, 11, 14, 7, 30, 55, 176000)</div></td></tr><tr><td style="font-weight:bold;vertical-align:top;">wsgi</td><td style="vertical-align:top;">:</td><td><div>&lt;gluon.main.LazyWSGI object at 0x066739D0&gt;</div></td></tr></table></div>'
tRp64
sS'frames'
p65
(lp66
(dp67
S'file'
p68
S'D:\\online-retail\\Online-Retail-Admin\\web2py\\gluon\\restricted.py'
p69
sS'dump'
p70
(dp71
S'environment'
p72
S"{'A': <class 'gluon.html.A'>, 'ANY_OF': <class 'gluon.validators.ANY_OF'>, 'ASSIGNJS': <function ASSIGNJS>, 'AppConfig': <function AppConfig>, 'Auth': <class 'gluon.tools.Auth'>, 'B': <class 'gluon.html.B'>, 'BEAUTIFY': <class 'gluon.html.BEAUTIFY'>, 'BODY': <class 'gluon.html.BODY'>, 'BR': <class 'gluon.html.BR'>, 'BUTTON': <class 'gluon.html.BUTTON'>, ...}"
p73
sS'ccode'
p74
S'<code object <module> at 066B8C38, file "D:\\onli...ons\\Admin_Panel\\controllers/default.py", line 10>'
p75
ssS'lnum'
p76
I227
sS'lines'
p77
(dp78
I224
S'            ccode = code'
p79
sI225
S'        else:'
p80
sI226
S'            ccode = compile2(code, layer)'
p81
sI227
S'        exec ccode in environment'
p82
sI228
S'    except HTTP:'
p83
sI229
S'        raise'
p84
sI230
S'    except RestrictedError:'
p85
sI231
S'        # do not encapsulate (obfuscate) the original RestrictedError'
p86
sI222
S'    try:'
p87
sI223
S'        if isinstance(code, types.CodeType):'
p88
ssS'call'
p89
S"(code='# -*- coding: utf-8 -*-\\n# this file is released ...)\\n\\nresponse._vars=response._caller(edit_product)\\n', environment={'A': <class 'gluon.html.A'>, 'ANY_OF': <class 'gluon.validators.ANY_OF'>, 'ASSIGNJS': <function ASSIGNJS>, 'AppConfig': <function AppConfig>, 'Auth': <class 'gluon.tools.Auth'>, 'B': <class 'gluon.html.B'>, 'BEAUTIFY': <class 'gluon.html.BEAUTIFY'>, 'BODY': <class 'gluon.html.BODY'>, 'BR': <class 'gluon.html.BR'>, 'BUTTON': <class 'gluon.html.BUTTON'>, ...}, layer=r'D:\\online-retail\\Online-Retail-Admin\\web2py\\applications\\Admin_Panel\\controllers/default.py')"
p90
sS'func'
p91
S'restricted'
p92
sa(dp93
g68
S'D:\\online-retail\\Online-Retail-Admin\\web2py\\applications\\Admin_Panel\\controllers\\default.py'
p94
sg70
(dp95
sg76
I188
sg77
(dp96
I177
S''
sI178
S''
sI179
S'def call():'
p97
sI180
S'    """'
p98
sI181
S'    exposes services. for example:'
p99
sI182
S'    http://..../[app]/default/call/jsonrpc'
p100
sI183
S'    decorate with @services.jsonrpc the functions to expose'
p101
sI184
S'    supports xml, json, xmlrpc, jsonrpc, amfrpc, rss, csv'
p102
sI185
S'    """'
p103
sI186
S'    return service()'
p104
ssg89
S'()'
p105
sg91
S'<module>'
p106
sa(dp107
g68
S'D:\\online-retail\\Online-Retail-Admin\\web2py\\gluon\\globals.py'
p108
sg70
(dp109
S'self'
p110
S'undefined'
p111
sS'f'
S'<function edit_product>'
p112
ssg76
I417
sg77
(dp113
I416
S'        self._vars = None'
p114
sI417
S'        self._caller = lambda f: f()'
p115
sI418
S'        self._view_environment = None'
p116
sI419
S'        self._custom_commit = None'
p117
sI420
S'        self._custom_rollback = None'
p118
sI421
S"        self.generic_patterns = ['*']"
p119
sI412
S"        self.flash = ''            # used by the default view layout"
p120
sI413
S'        self.meta = Storage()      # used by web2py_ajax.html'
p121
sI414
S'        self.menu = []             # used by the default view layout'
p122
sI415
S'        self.files = []            # used by web2py_ajax.html'
p123
ssg89
S'(f=<function edit_product>)'
p124
sg91
S'<lambda>'
p125
sa(dp126
g68
S'D:\\online-retail\\Online-Retail-Admin\\web2py\\applications\\Admin_Panel\\controllers\\default.py'
p127
sg70
(dp128
S'printChart'
p129
g111
ssg76
I61
sg77
(dp130
I64
S''
sI65
S'# def db_edit_product(supplier_association_id, edits):'
p131
sI56
S''
sI57
S'    # edits = ", ".join(data.edits)'
p132
sI58
S'    # response_code = db_edit_product(data.supplier_association_id, edits)'
p133
sI59
S'    query = "update get_product set manufacturer=\'"+manufacturer+"\' ,supplier_name=\'"+supplier_name+"\' ,supplier_sku=\'"+supplier_sku+"\', color_name = \'"+color+"\', size_name = \'"+size+"\',description=\'"+desc+"\',title=\'"+title+"\',cost=\'"+cost+"\',price=\'"+price+"\' where supplier_association_id = \'" + supplier_association_id+"\'"'
p134
sI60
S'    print query'
p135
sI61
S'    db.executesql(query)'
p136
sI62
S'    # response_code = 1'
p137
sI63
S'    # return dict(response_code=response_code)'
p138
ssg89
S'()'
p139
sg91
S'edit_product'
p140
sa(dp141
g68
S'D:\\online-retail\\Online-Retail-Admin\\web2py\\gluon\\packages\\dal\\pydal\\base.py'
p142
sg70
(dp143
S'query'
p144
S'"update get_product set manufacturer=\'brother\' ,s...\',price=\'697\' where supplier_association_id = \'1\'"'
p145
sS'adapter'
p146
S'<pydal.adapters.mssql.MSSQL4Adapter object>'
p147
sS'adapter.execute'
p148
S'<bound method MSSQL4Adapter.execute of <pydal.adapters.mssql.MSSQL4Adapter object>>'
p149
ssg76
I1019
sg77
(dp150
I1014
S'        """'
p151
sI1015
S'        adapter = self._adapter'
p152
sI1016
S'        if placeholders:'
p153
sI1017
S'            adapter.execute(query, placeholders)'
p154
sI1018
S'        else:'
p155
sI1019
S'            adapter.execute(query)'
p156
sI1020
S'        if as_dict or as_ordered_dict:'
p157
sI1021
S"            if not hasattr(adapter.cursor,'description'):"
p158
sI1022
S'                raise RuntimeError("database does not support executesql(...,as_dict=True)")'
p159
sI1023
S'            # Non-DAL legacy db query, converts cursor results to dict.'
p160
ssg89
S'(self=<DAL uri="mssql4:******@hotkeycc.com/devora">, query="update get_product set manufacturer=\'brother\' ,s...\',price=\'697\' where supplier_association_id = \'1\'", placeholders=None, as_dict=False, fields=None, colnames=None, as_ordered_dict=False)'
p161
sg91
S'executesql'
p162
sa(dp163
g68
S'D:\\online-retail\\Online-Retail-Admin\\web2py\\gluon\\packages\\dal\\pydal\\adapters\\base.py'
p164
sg70
(dp165
S'a'
S'("update get_product set manufacturer=\'brother\' ,s...\',price=\'697\' where supplier_association_id = \'1\'",)'
p166
sS'self'
p167
S'<pydal.adapters.mssql.MSSQL4Adapter object>'
p168
sS'b'
S'{}'
p169
sS'self.log_execute'
p170
S'<bound method MSSQL4Adapter.log_execute of <pydal.adapters.mssql.MSSQL4Adapter object>>'
p171
ssg76
I1388
sg77
(dp172
I1383
S'        self.db._timings.append((command,time.time()-t0))'
p173
sI1384
S'        del self.db._timings[:-TIMINGSSIZE]'
p174
sI1385
S'        return ret'
p175
sI1386
S''
sI1387
S'    def execute(self, *a, **b):'
p176
sI1388
S'        return self.log_execute(*a, **b)'
p177
sI1389
S''
sI1390
S'    def execute_test_query(self):'
p178
sI1391
S'        return self.execute(self.test_query)'
p179
sI1392
S''
ssg89
S'(self=<pydal.adapters.mssql.MSSQL4Adapter object>, *a=("update get_product set manufacturer=\'brother\' ,s...\',price=\'697\' where supplier_association_id = \'1\'",), **b={})'
p180
sg91
S'execute'
p181
sa(dp182
g68
S'D:\\online-retail\\Online-Retail-Admin\\web2py\\gluon\\packages\\dal\\pydal\\adapters\\base.py'
p183
sg70
(dp184
S'a'
S'("update get_product set manufacturer=\'brother\' ,s...\',price=\'697\' where supplier_association_id = \'1\'",)'
p185
sS'b'
g169
sS'self'
p186
S'<pydal.adapters.mssql.MSSQL4Adapter object>'
p187
sS'ret'
p188
g111
sS'command'
p189
S'"update get_product set manufacturer=\'brother\' ,s...\',price=\'697\' where supplier_association_id = \'1\'"'
p190
sS'self.get_cursor'
p191
S'<bound method MSSQL4Adapter.get_cursor of <pydal.adapters.mssql.MSSQL4Adapter object>>'
p192
sS').execute'
p193
g111
ssg76
I1382
sg77
(dp194
I1377
S'            command = self.filter_sql_command(command)'
p195
sI1378
S'        if self.db._debug:'
p196
sI1379
S"            self.db.logger.debug('SQL: %s' % command)"
p197
sI1380
S'        self.db._lastsql = command'
p198
sI1381
S'        t0 = time.time()'
p199
sI1382
S'        ret = self.get_cursor().execute(command, *a[1:], **b)'
p200
sI1383
S'        self.db._timings.append((command,time.time()-t0))'
p201
sI1384
S'        del self.db._timings[:-TIMINGSSIZE]'
p202
sI1385
S'        return ret'
p203
sI1386
S''
ssg89
S'(self=<pydal.adapters.mssql.MSSQL4Adapter object>, *a=("update get_product set manufacturer=\'brother\' ,s...\',price=\'697\' where supplier_association_id = \'1\'",), **b={})'
p204
sg91
S'log_execute'
p205
sa(dp206
g68
S'D:\\online-retail\\Online-Retail-Admin\\web2py\\gluon\\contrib\\pypyodbc.py'
p207
sg70
(dp208
S'query_string'
p209
S'"update get_product set manufacturer=\'brother\' ,s...\',price=\'697\' where supplier_association_id = \'1\'"'
p210
sS'self'
p211
S'<gluon.contrib.pypyodbc.Cursor instance>'
p212
sS'self.execdirect'
p213
S'<bound method Cursor.execdirect of <gluon.contrib.pypyodbc.Cursor instance>>'
p214
ssg76
I1605
sg77
(dp215
I1600
S'                self._NumOfRows()'
p216
sI1601
S'                self._UpdateDesc()'
p217
sI1602
S'                #self._BindCols()'
p218
sI1603
S''
sI1604
S'        else:'
p219
sI1605
S'            self.execdirect(query_string)'
p220
sI1606
S'        return self'
p221
sI1607
S''
sI1608
S''
sI1609
S'    def _SQLExecute(self):'
p222
ssg89
S'(self=<gluon.contrib.pypyodbc.Cursor instance>, query_string="update get_product set manufacturer=\'brother\' ,s...\',price=\'697\' where supplier_association_id = \'1\'", params=None, many_mode=False, call_mode=False)'
p223
sg91
g181
sa(dp224
g68
S'D:\\online-retail\\Online-Retail-Admin\\web2py\\gluon\\contrib\\pypyodbc.py'
p225
sg70
(dp226
S'self'
p227
S'<gluon.contrib.pypyodbc.Cursor instance>'
p228
sS'global check_success'
p229
S'<function check_success>'
p230
sS'ret'
p231
S'-1'
p232
ssg76
I1631
sg77
(dp233
I1632
S'        self._NumOfRows()'
p234
sI1633
S'        self._UpdateDesc()'
p235
sI1634
S'        #self._BindCols()'
p236
sI1635
S'        return self'
p237
sI1626
S'            c_query_string = wchar_pointer(UCS_buf(query_string))'
p238
sI1627
S'            ret = ODBC_API.SQLExecDirectW(self.stmt_h, c_query_string, len(query_string))'
p239
sI1628
S'        else:'
p240
sI1629
S'            c_query_string = ctypes.c_char_p(query_string)'
p241
sI1630
S'            ret = ODBC_API.SQLExecDirect(self.stmt_h, c_query_string, len(query_string))'
p242
sI1631
S'        check_success(self, ret)'
p243
ssg89
S'(self=<gluon.contrib.pypyodbc.Cursor instance>, query_string="update get_product set manufacturer=\'brother\' ,s...\',price=\'697\' where supplier_association_id = \'1\'")'
p244
sg91
S'execdirect'
p245
sa(dp246
g68
S'D:\\online-retail\\Online-Retail-Admin\\web2py\\gluon\\contrib\\pypyodbc.py'
p247
sg70
(dp248
S'ODBC_obj'
p249
S'<gluon.contrib.pypyodbc.Cursor instance>'
p250
sS'global ctrl_err'
p251
S'<function ctrl_err>'
p252
sS'ret'
p253
S'-1'
p254
sS'ODBC_obj.stmt_h'
p255
S'c_void_p(58500152)'
p256
sS'global SQL_HANDLE_STMT'
p257
S'3'
sS'ODBC_obj.ansi'
p258
S'False'
p259
ssg76
I986
sg77
(dp260
I981
S''
sI982
S'def check_success(ODBC_obj, ret):'
p261
sI983
S'    """ Validate return value, if not success, raise exceptions based on the handle """'
p262
sI984
S'    if ret not in (SQL_SUCCESS, SQL_SUCCESS_WITH_INFO, SQL_NO_DATA):'
p263
sI985
S'        if isinstance(ODBC_obj, Cursor):'
p264
sI986
S'            ctrl_err(SQL_HANDLE_STMT, ODBC_obj.stmt_h, ret, ODBC_obj.ansi)'
p265
sI987
S'        elif isinstance(ODBC_obj, Connection):'
p266
sI988
S'            ctrl_err(SQL_HANDLE_DBC, ODBC_obj.dbc_h, ret, ODBC_obj.ansi)'
p267
sI989
S'        else:'
p268
sI990
S'            ctrl_err(SQL_HANDLE_ENV, ODBC_obj, ret, False)'
p269
ssg89
S'(ODBC_obj=<gluon.contrib.pypyodbc.Cursor instance>, ret=-1)'
p270
sg91
S'check_success'
p271
sa(dp272
g68
S'D:\\online-retail\\Online-Retail-Admin\\web2py\\gluon\\contrib\\pypyodbc.py'
p273
sg70
(dp274
S'state'
p275
S"u'42000'"
p276
sS'err_text'
p277
S'u"[42000] [Microsoft][ODBC SQL Server Driver][SQ...e the modification affects multiple base tables."'
p278
sS'global ProgrammingError'
p279
S"<class 'gluon.contrib.pypyodbc.ProgrammingError'>"
p280
ssg76
I954
sg77
(dp281
I949
S'            #No more data, I can raise'
p282
sI950
S'            #print(err_list[0][1])'
p283
sI951
S'            state = err_list[0][0]'
p284
sI952
S"            err_text = raw_s('[')+state+raw_s('] ')+err_list[0][1]"
p285
sI953
S"            if state[:2] in (raw_s('24'),raw_s('25'),raw_s('42')):"
p286
sI954
S'                raise ProgrammingError(state,err_text)'
p287
sI955
S"            elif state[:2] in (raw_s('22')):"
p288
sI956
S'                raise DataError(state,err_text)'
p289
sI957
S"            elif state[:2] in (raw_s('23')) or state == raw_s('40002'):"
p290
sI958
S'                raise IntegrityError(state,err_text)'
p291
ssg89
S'(ht=3, h=c_void_p(58500152), val_ret=-1, ansi=False)'
p292
sg91
S'ctrl_err'
p293
sasS'pyver'
p294
S'Python 2.7.12: C:\\Python27\\python2.exe (prefix: C:\\Python27)'
p295
sS'session'
p296
g63
(S's\x1a\x00\x00\x00<div><table></table></div>'
tRp297
sS'etype'
p298
S"<class 'gluon.contrib.pypyodbc.ProgrammingError'>"
p299
sS'date'
p300
S'Sun Nov 13 23:30:55 2016'
p301
sS'response'
p302
g63
(S's;\x1f\x00\x00<div><table><tr><td style="font-weight:bold;vertical-align:top;">body</td><td style="vertical-align:top;">:</td><td><div>&lt;cStringIO.StringO object at 0x06707DA0&gt;</div></td></tr><tr><td style="font-weight:bold;vertical-align:top;">cookies</td><td style="vertical-align:top;">:</td><td><div><table><tr><td style="font-weight:bold;vertical-align:top;">session_id_admin_panel</td><td style="vertical-align:top;">:</td><td><div>127.0.0.1-32dfaea8-4f16-4a4d-9c24-8422f475da51<table><tr><td style="font-weight:bold;vertical-align:top;">comment</td><td style="vertical-align:top;">:</td><td><div></div></td></tr><tr><td style="font-weight:bold;vertical-align:top;">domain</td><td style="vertical-align:top;">:</td><td><div></div></td></tr><tr><td style="font-weight:bold;vertical-align:top;">expires</td><td style="vertical-align:top;">:</td><td><div></div></td></tr><tr><td style="font-weight:bold;vertical-align:top;">httponly</td><td style="vertical-align:top;">:</td><td><div></div></td></tr><tr><td style="font-weight:bold;vertical-align:top;">max-age</td><td style="vertical-align:top;">:</td><td><div></div></td></tr><tr><td style="font-weight:bold;vertical-align:top;">path</td><td style="vertical-align:top;">:</td><td><div>/</div></td></tr><tr><td style="font-weight:bold;vertical-align:top;">secure</td><td style="vertical-align:top;">:</td><td><div></div></td></tr><tr><td style="font-weight:bold;vertical-align:top;">version</td><td style="vertical-align:top;">:</td><td><div></div></td></tr></table></div></td></tr></table></div></td></tr><tr><td style="font-weight:bold;vertical-align:top;">delimiters</td><td style="vertical-align:top;">:</td><td><div><table><tr><td><div>{{</div></td></tr><tr><td><div>}}</div></td></tr></table></div></td></tr><tr><td style="font-weight:bold;vertical-align:top;">files</td><td style="vertical-align:top;">:</td><td><div><table></table></div></td></tr><tr><td style="font-weight:bold;vertical-align:top;">flash</td><td style="vertical-align:top;">:</td><td><div></div></td></tr><tr><td style="font-weight:bold;vertical-align:top;">form_label_separator</td><td style="vertical-align:top;">:</td><td><div></div></td></tr><tr><td style="font-weight:bold;vertical-align:top;">formstyle</td><td style="vertical-align:top;">:</td><td><div>bootstrap3_inline</div></td></tr><tr><td style="font-weight:bold;vertical-align:top;">generic_patterns</td><td style="vertical-align:top;">:</td><td><div><table><tr><td><div>*</div></td></tr></table></div></td></tr><tr><td style="font-weight:bold;vertical-align:top;">google_analytics_id</td><td style="vertical-align:top;">:</td><td><div>None</div></td></tr><tr><td style="font-weight:bold;vertical-align:top;">headers</td><td style="vertical-align:top;">:</td><td><div><table><tr><td style="font-weight:bold;vertical-align:top;">X-Powered-By</td><td style="vertical-align:top;">:</td><td><div>web2py</div></td></tr></table></div></td></tr><tr><td style="font-weight:bold;vertical-align:top;">logo</td><td style="vertical-align:top;">:</td><td><div><a class="navbar-brand" href="http://www.web2py.com/" id="web2py-logo"><b>web<span>2</span>py</b>&trade;&nbsp;</a></div></td></tr><tr><td style="font-weight:bold;vertical-align:top;">menu</td><td style="vertical-align:top;">:</td><td><div><table><tr><td><div><table><tr><td><div>Home</div></td></tr><tr><td><div>False</div></td></tr><tr><td><div>/Admin_Panel/default/index</div></td></tr><tr><td><div><table></table></div></td></tr></table></div></td></tr><tr><td><div><table><tr><td><div>Bar Chart</div></td></tr><tr><td><div>False</div></td></tr><tr><td><div>/Admin_Panel/default/chart_bars</div></td></tr></table></div></td></tr><tr><td><div><table><tr><td><div>Inventory</div></td></tr><tr><td><div>False</div></td></tr><tr><td><div>/Admin_Panel/default/inventory</div></td></tr></table></div></td></tr><tr><td><div><table><tr><td><div>Suppliers</div></td></tr><tr><td><div>False</div></td></tr><tr><td><div>/Admin_Panel/default/supplier</div></td></tr></table></div></td></tr><tr><td><div><table><tr><td><div>Statistics</div></td></tr><tr><td><div>False</div></td></tr><tr><td><div>/Admin_Panel/default/stats</div></td></tr></table></div></td></tr><tr><td><div><table><tr><td><div>Products</div></td></tr><tr><td><div>False</div></td></tr><tr><td><div>/Admin_Panel/default/products</div></td></tr></table></div></td></tr></table></div></td></tr><tr><td style="font-weight:bold;vertical-align:top;">meta</td><td style="vertical-align:top;">:</td><td><div><table><tr><td style="font-weight:bold;vertical-align:top;">author</td><td style="vertical-align:top;">:</td><td><div>None</div></td></tr><tr><td style="font-weight:bold;vertical-align:top;">description</td><td style="vertical-align:top;">:</td><td><div>None</div></td></tr><tr><td style="font-weight:bold;vertical-align:top;">generator</td><td style="vertical-align:top;">:</td><td><div>None</div></td></tr><tr><td style="font-weight:bold;vertical-align:top;">keywords</td><td style="vertical-align:top;">:</td><td><div>None</div></td></tr></table></div></td></tr><tr><td style="font-weight:bold;vertical-align:top;">models_to_run</td><td style="vertical-align:top;">:</td><td><div><table><tr><td><div>^\\w+\\.py$</div></td></tr><tr><td><div>^default/\\w+\\.py$</div></td></tr><tr><td><div>^default/edit_product/\\w+\\.py$</div></td></tr></table></div></td></tr><tr><td style="font-weight:bold;vertical-align:top;">postprocessing</td><td style="vertical-align:top;">:</td><td><div><table></table></div></td></tr><tr><td style="font-weight:bold;vertical-align:top;">session_client</td><td style="vertical-align:top;">:</td><td><div>127.0.0.1</div></td></tr><tr><td style="font-weight:bold;vertical-align:top;">session_cookie_compression_level</td><td style="vertical-align:top;">:</td><td><div>None</div></td></tr><tr><td style="font-weight:bold;vertical-align:top;">session_cookie_expires</td><td style="vertical-align:top;">:</td><td><div>None</div></td></tr><tr><td style="font-weight:bold;vertical-align:top;">session_data_name</td><td style="vertical-align:top;">:</td><td><div>session_data_admin_panel</div></td></tr><tr><td style="font-weight:bold;vertical-align:top;">session_file</td><td style="vertical-align:top;">:</td><td><div>None</div></td></tr><tr><td style="font-weight:bold;vertical-align:top;">session_filename</td><td style="vertical-align:top;">:</td><td><div>D:\\online-retail\\Online-Retail-Admin\\web2py\\applications\\Admin_Panel\\sessions\\127.0.0.1-32dfaea8-4f16-4a4d-9c24-8422f475da51</div></td></tr><tr><td style="font-weight:bold;vertical-align:top;">session_hash</td><td style="vertical-align:top;">:</td><td><div>c0762cbf4baf7f9af97c051e7fcb8083</div></td></tr><tr><td style="font-weight:bold;vertical-align:top;">session_id</td><td style="vertical-align:top;">:</td><td><div>127.0.0.1-32dfaea8-4f16-4a4d-9c24-8422f475da51</div></td></tr><tr><td style="font-weight:bold;vertical-align:top;">session_id_name</td><td style="vertical-align:top;">:</td><td><div>session_id_admin_panel</div></td></tr><tr><td style="font-weight:bold;vertical-align:top;">session_masterapp</td><td style="vertical-align:top;">:</td><td><div>Admin_Panel</div></td></tr><tr><td style="font-weight:bold;vertical-align:top;">session_new</td><td style="vertical-align:top;">:</td><td><div>True</div></td></tr><tr><td style="font-weight:bold;vertical-align:top;">session_storage_type</td><td style="vertical-align:top;">:</td><td><div>file</div></td></tr><tr><td style="font-weight:bold;vertical-align:top;">status</td><td style="vertical-align:top;">:</td><td><div>200</div></td></tr><tr><td style="font-weight:bold;vertical-align:top;">subtitle</td><td style="vertical-align:top;">:</td><td><div></div></td></tr><tr><td style="font-weight:bold;vertical-align:top;">title</td><td style="vertical-align:top;">:</td><td><div>Admin Panel</div></td></tr><tr><td style="font-weight:bold;vertical-align:top;">view</td><td style="vertical-align:top;">:</td><td><div>default/edit_product.html</div></td></tr></table></div>'
tRp303
sS'locals'
p304
(dp305
S'err_list'
p306
S'[(u\'42000\', u"[Microsoft][ODBC SQL Server Driver][SQL Server...e the modification affects multiple base tables.", 4405)]'
p307
sS'h'
S'c_void_p(58500152)'
p308
sS'raw_s'
p309
S"<type 'unicode'>"
p310
sS'ht'
p311
S'3'
sS'Buffer_len'
p312
S'c_short(0)'
p313
sS'ansi'
p314
g259
sS'state'
p315
S"u'42000'"
p316
sS'ODBC_func'
p317
S'<_FuncPtr object>'
p318
sS'ret'
p319
S'100'
p320
sS'Message'
p321
S'<ctypes.c_wchar_Array_4096 object>'
p322
sS'val_ret'
p323
S'-1'
p324
sS'number_errors'
p325
S'2'
sS'NativeError'
p326
S'c_long(4405)'
p327
sS'err_text'
p328
S'u"[42000] [Microsoft][ODBC SQL Server Driver][SQ...e the modification affects multiple base tables."'
p329
sssS'traceback'
p330
S'Traceback (most recent call last):\n  File "D:\\online-retail\\Online-Retail-Admin\\web2py\\gluon\\restricted.py", line 227, in restricted\n    exec ccode in environment\n  File "D:\\online-retail\\Online-Retail-Admin\\web2py\\applications\\Admin_Panel\\controllers/default.py", line 188, in <module>\n  File "D:\\online-retail\\Online-Retail-Admin\\web2py\\gluon\\globals.py", line 417, in <lambda>\n    self._caller = lambda f: f()\n  File "D:\\online-retail\\Online-Retail-Admin\\web2py\\applications\\Admin_Panel\\controllers/default.py", line 61, in edit_product\n    db.executesql(query)\n  File "D:\\online-retail\\Online-Retail-Admin\\web2py\\gluon\\packages\\dal\\pydal\\base.py", line 1019, in executesql\n    adapter.execute(query)\n  File "D:\\online-retail\\Online-Retail-Admin\\web2py\\gluon\\packages\\dal\\pydal\\adapters\\base.py", line 1388, in execute\n    return self.log_execute(*a, **b)\n  File "D:\\online-retail\\Online-Retail-Admin\\web2py\\gluon\\packages\\dal\\pydal\\adapters\\base.py", line 1382, in log_execute\n    ret = self.get_cursor().execute(command, *a[1:], **b)\n  File "D:\\online-retail\\Online-Retail-Admin\\web2py\\gluon\\contrib\\pypyodbc.py", line 1605, in execute\n    self.execdirect(query_string)\n  File "D:\\online-retail\\Online-Retail-Admin\\web2py\\gluon\\contrib\\pypyodbc.py", line 1631, in execdirect\n    check_success(self, ret)\n  File "D:\\online-retail\\Online-Retail-Admin\\web2py\\gluon\\contrib\\pypyodbc.py", line 986, in check_success\n    ctrl_err(SQL_HANDLE_STMT, ODBC_obj.stmt_h, ret, ODBC_obj.ansi)\n  File "D:\\online-retail\\Online-Retail-Admin\\web2py\\gluon\\contrib\\pypyodbc.py", line 954, in ctrl_err\n    raise ProgrammingError(state,err_text)\nProgrammingError: (u\'42000\', u"[42000] [Microsoft][ODBC SQL Server Driver][SQL Server]View or function \'get_product\' is not updatable because the modification affects multiple base tables.")\n'
p331
s.