(dp1
S'output'
p2
S"<type 'exceptions.KeyError'> 3"
p3
sS'layer'
p4
S'D:\\online-retail\\Online-Retail-Admin\\web2py\\applications\\Admin_Panel\\views\\default/products.html'
p5
sS'code'
p6
S'left_sidebar_enabled,right_sidebar_enabled=False,(\'message\' in globals())\nresponse.write(\'\\r\\n\', escape=False)\nresponse.write(\'<!DOCTYPE html>\\r\\n<!--[if (gt IE 9)|!(IE)]><!--> <html class="no-js" lang="\', escape=False)\nresponse.write(T.accepted_language or \'en\')\nresponse.write(\'"> <!--<![endif]-->\\r\\n  <head>\\r\\n    <meta charset="utf-8">\\r\\n    <!-- www.phpied.com/conditional-comments-block-downloads/ -->\\r\\n    <!-- Always force latest IE rendering engine\\r\\n         (even in intranet) & Chrome Frame\\r\\n         Remove this if you use the .htaccess -->\\r\\n    <meta http-equiv="X-UA-Compatible" content="IE=edge\', escape=False)\nresponse.write(not request.is_local and \',chrome=1\' or \'\')\nresponse.write(\'">\\r\\n    <!--  Mobile Viewport Fix\\r\\n          j.mp/mobileviewport & davidbcalhoun.com/2010/viewport-metatag\\r\\n          device-width: Occupy full width of the screen in its current orientation\\r\\n          initial-scale = 1.0 retains dimensions instead of zooming out if page height > device height\\r\\n          user-scalable = yes allows the user to zoom in -->\\r\\n    <meta name="viewport" content="width=device-width, initial-scale=1.0">\\r\\n    <title>\', escape=False)\nresponse.write(response.title or request.application)\nresponse.write(\'</title>\\r\\n    <!-- http://dev.w3.org/html5/markup/meta.name.html -->\\r\\n    <meta name="application-name" content="\', escape=False)\nresponse.write(request.application)\nresponse.write(\'">\\r\\n    <!-- Speaking of Google, don\\\'t forget to set your site up:\\r\\n         http://google.com/webmasters -->\\r\\n    <meta name="google-site-verification" content="">\\r\\n    <!-- include stylesheets -->\\r\\n    <link rel="stylesheet" href="\', escape=False)\nresponse.write(URL(\'static\',\'css/bootstrap.min.css\'))\nresponse.write(\'"/>\\r\\n    <link rel="stylesheet" href="\', escape=False)\nresponse.write(URL(\'static\',\'css/bootstrap-theme.min.css\'))\nresponse.write(\'"/>\\r\\n    <link rel="stylesheet" href="\', escape=False)\nresponse.write(URL(\'static\',\'css/web2py.css\'))\nresponse.write(\'"/>\\r\\n    <link rel="stylesheet" href="\', escape=False)\nresponse.write(URL(\'static\',\'css/web2py-bootstrap3.css\'))\nresponse.write(\'"/>\\r\\n    <link rel="stylesheet" href="\', escape=False)\nresponse.write(URL(\'static\',\'css/admin_panel.css\'))\nresponse.write(\'"/>\\r\\n    <link rel="stylesheet" href="\', escape=False)\nresponse.write(URL(\'static\',\'css/font-awesome/css/font-awesome.min.css\'))\nresponse.write(\'"/>\\r\\n    <link rel="shortcut icon" href="\', escape=False)\nresponse.write(URL(\'static\',\'images/favicon.ico\'))\nresponse.write(\'" type="image/x-icon">\\r\\n    <link rel="apple-touch-icon" href="\', escape=False)\nresponse.write(URL(\'static\',\'images/favicon.png\'))\nresponse.write(\'">\\r\\n    <!-- All JavaScript at the bottom, except for Modernizr which enables\\r\\n         HTML5 elements & feature detects -->\\r\\n    <script src="\', escape=False)\nresponse.write(URL(\'static\',\'js/modernizr-2.8.3.min.js\'))\nresponse.write(\'"></script>\\r\\n       <script type="text/javascript" src="https://d3js.org/d3.v3.min.js" ></script>\\r\\n    <!--[if lt IE 9]>\\r\\n        <script src="\', escape=False)\nresponse.write(URL(\'static\',\'js/respond-1.4.2.min.js\'))\nresponse.write(\'"></script>\\r\\n        <![endif]-->\\r\\n    <!-- Favicons -->\\r\\n    \', escape=False)\nresponse.write(\'<script type="text/javascript"><!--\\r\\n    // These variables are used by the web2py_ajax_init function in web2py_ajax.js (which is loaded below).\\r\\n    var w2p_ajax_confirm_message = "\', escape=False)\nresponse.write(T(\'Are you sure you want to delete this object?\'))\nresponse.write(\'";\\r\\n    var w2p_ajax_disable_with_message = "\', escape=False)\nresponse.write(T(\'Working...\'))\nresponse.write(\'";\\r\\n    var w2p_ajax_date_format = "\', escape=False)\nresponse.write(T(\'%Y-%m-%d\'))\nresponse.write(\'";\\r\\n    var w2p_ajax_datetime_format = "\', escape=False)\nresponse.write(T(\'%Y-%m-%d %H:%M:%S\'))\nresponse.write(\'";\\r\\n    var ajax_error_500 = \\\'\', escape=False)\nresponse.write(T.M(\'An error occured, please [[reload %s]] the page\') % URL(args=request.args, vars=request.get_vars))\nresponse.write("\'\\r\\n    //--></script>\\r\\n", escape=False)\nresponse.files.insert(0,URL(\'static\',\'js/jquery.js\'))\nresponse.files.insert(1,URL(\'static\',\'css/calendar.css\'))\nresponse.files.insert(2,URL(\'static\',\'js/calendar.js\'))\nresponse.files.insert(3,URL(\'static\',\'js/web2py.js\'))\nresponse.include_meta()\nresponse.include_files()\nresponse.write(\'\\r\\n\', escape=False)\nresponse.write(\' <!-- this includes jquery.js, calendar.js/.css and web2py.js -->\\r\\n\\r\\n    \', escape=False)\nresponse.write(\' <!-- taking input from html files -->\\r\\n\\r\\n  </head>\\r\\n  <body>\\r\\n\\r\\n    <!--[if lt IE 8]<p class="browserupgrade">You are using an <strong>outdated</strong> browser. Please <a href="http://browsehappy.com/">upgrade your browser</a> to improve your experience.</p><![endif]-->\\r\\n    <div class="w2p_flash alert alert-dismissable">\', escape=False)\nresponse.write(response.flash or \'\')\nresponse.write(\'</div>\\r\\n\\r\\n    <div class="navbar navbar-default navbar-fixed-top" role="navigation">\\r\\n        <div class="container-fluid">\\r\\n            <div class="navbar-header">\\r\\n                <button type="button" class="navbar-toggle" data-toggle="collapse" data-target = ".navbar-collapse">\\r\\n                    <span class="sr-only">Toggle navigation</span>\\r\\n                    <span class="icon-bar"></span>\\r\\n                    <span class="icon-bar"></span>\\r\\n                    <span class="icon-bar"></span>\\r\\n                </button>\\r\\n            </div>\\r\\n         <ul class="nav navbar-nav navbar-right">\\r\\n            \', escape=False)\nresponse.write(\'auth\' in globals() and auth.navbar(\'eh\',mode=\'dropdown\') or \'\')\nresponse.write(\'\\r\\n          </ul>\\r\\n                \', escape=False)\nif response.menu:\n    response.write(\'\\r\\n                \', escape=False)\n    response.write(MENU(response.menu, _class=\'nav navbar-nav\'))\n    response.write(\'\\r\\n                \', escape=False)\n    pass\nresponse.write(\'\\r\\n        </div>\\r\\n    </div>\\r\\n\\r\\n    <!-- Masthead ===================================== -->    \\r\\n    \', escape=False)\nresponse.write(\' <!-- taking input from html files -->\\r\\n        <div id=\\\'side-bar\\\'>\\r\\n            <a class=\\\'pad5 display-block text-shadow\\\' href=\\\'index\\\'><img src="/Admin_Panel/static/images/N-Home2.png" aria-hidden="true" alt="Home"></a>\\r\\n            <a class=\\\'pad5 display-block text-shadow\\\' href=\\\'stats\\\'><img src="/Admin_Panel/static/images/N-Reports2.png" aria-hidden="true" alt="Stats"></a>\\r\\n            <a class=\\\'pad5 display-block text-shadow\\\' href=\\\'supplier_select\\\'><img src="/Admin_Panel/static/images/N-SM2.png" aria-hidden="true" alt="Supplier Select"></a>\\r\\n            <a class=\\\'pad5 display-block text-shadow\\\' href=\\\'inventory_management\\\'><img src="/Admin_Panel/static/images/N-PM2.png" aria-hidden="true" alt="Inventory Management"></a>\\r\\n        </div>\\r\\n    \', escape=False)\nresponse.write(\'\\r\\n    <!-- Main ========================================= -->\\r\\n    <!-- Begin page content -->\\r\\n    \', escape=False)\nresponse.write(\'\\r\\n\\r\\n\\r\\n<div id="product_container">\\r\\n    \', escape=False)\nfor item in test:\n    response.write(\'\\r\\n    \', escape=False)\n    response.write(item[3])\n    response.write(\'\\r\\n    <br>\\r\\n    \', escape=False)\n    pass\nresponse.write(\'\\r\\n</div>\', escape=False)\nresponse.write(\'\\r\\n\\r\\n    \', escape=False)\nresponse.write(\' <!-- this is default footer --> <!-- taking input from html files -->\\r\\n    <footer class="footer">\\r\\n    </footer>\\r\\n    \', escape=False)\nresponse.write(\'\\r\\n    <!-- The javascript =============================== -->\\r\\n    <script src="\', escape=False)\nresponse.write(URL(\'static\',\'js/bootstrap.min.js\'))\nresponse.write(\'"></script>\\r\\n    <script src="\', escape=False)\nresponse.write(URL(\'static\',\'js/web2py-bootstrap3.js\'))\nresponse.write(\'"></script>\\r\\n    \', escape=False)\nresponse.write(\'\\r\\n    \', escape=False)\nif response.google_analytics_id:\n    response.write(\'\\r\\n    <!-- Analytics ==================================== -->\\r\\n    <script src="\', escape=False)\n    response.write(URL(\'static\',\'js/analytics.min.js\'))\n    response.write(\'"></script>\\r\\n    <script type="text/javascript">\\r\\n      analytics.initialize({\\r\\n      \\\'Google Analytics\\\':{trackingId:\\\'\', escape=False)\n    response.write(response.google_analytics_id)\n    response.write("\'}\\r\\n      });\\r\\n    </script>\\r\\n    ", escape=False)\n    pass\nresponse.write(\'\\r\\n    <!-- Share ============================y============ -->\\r\\n    <script src="\', escape=False)\nresponse.write(URL(\'static\',\'js/share.js\',vars=dict(static=URL(\'static\',\'images\'))))\nresponse.write(\'"></script>\\r\\n  </body>\\r\\n</html>\\r\\n\', escape=False)'
p7
sS'snapshot'
p8
(dp9
S'exception'
p10
(dp11
S'__hash__'
p12
S"<method-wrapper '__hash__' of exceptions.KeyError object>"
p13
sS'__setattr__'
p14
S"<method-wrapper '__setattr__' of exceptions.KeyError object>"
p15
sS'__reduce_ex__'
p16
S'<built-in method __reduce_ex__ of exceptions.KeyError object>'
p17
sS'__getslice__'
p18
S"<method-wrapper '__getslice__' of exceptions.KeyError object>"
p19
sS'__getitem__'
p20
S"<method-wrapper '__getitem__' of exceptions.KeyError object>"
p21
sS'__setstate__'
p22
S'<built-in method __setstate__ of exceptions.KeyError object>'
p23
sS'__reduce__'
p24
S'<built-in method __reduce__ of exceptions.KeyError object>'
p25
sS'__str__'
p26
S"<method-wrapper '__str__' of exceptions.KeyError object>"
p27
sS'__format__'
p28
S'<built-in method __format__ of exceptions.KeyError object>'
p29
sS'__getattribute__'
p30
S"<method-wrapper '__getattribute__' of exceptions.KeyError object>"
p31
sS'__class__'
p32
S"<type 'exceptions.KeyError'>"
p33
sS'__unicode__'
p34
S'<built-in method __unicode__ of exceptions.KeyError object>'
p35
sS'__delattr__'
p36
S"<method-wrapper '__delattr__' of exceptions.KeyError object>"
p37
sS'__subclasshook__'
p38
S'<built-in method __subclasshook__ of type object>'
p39
sS'__repr__'
p40
S"<method-wrapper '__repr__' of exceptions.KeyError object>"
p41
sS'args'
p42
S'(3,)'
p43
sS'__dict__'
p44
S'{}'
p45
sS'__sizeof__'
p46
S'<built-in method __sizeof__ of exceptions.KeyError object>'
p47
sS'__doc__'
p48
S"'Mapping key not found.'"
p49
sS'__init__'
p50
S"<method-wrapper '__init__' of exceptions.KeyError object>"
p51
sS'__new__'
p52
S'<built-in method __new__ of type object>'
p53
ssS'evalue'
p54
S'3'
sS'request'
p55
cgluon.html
XML_unpickle
p56
(S's{\x8a\x00\x00<div><table><tr><td style="font-weight:bold;vertical-align:top;">ajax</td><td style="vertical-align:top;">:</td><td><div>False</div></td></tr><tr><td style="font-weight:bold;vertical-align:top;">application</td><td style="vertical-align:top;">:</td><td><div>Admin_Panel</div></td></tr><tr><td style="font-weight:bold;vertical-align:top;">args</td><td style="vertical-align:top;">:</td><td><div><table></table></div></td></tr><tr><td style="font-weight:bold;vertical-align:top;">cid</td><td style="vertical-align:top;">:</td><td><div>None</div></td></tr><tr><td style="font-weight:bold;vertical-align:top;">client</td><td style="vertical-align:top;">:</td><td><div>127.0.0.1</div></td></tr><tr><td style="font-weight:bold;vertical-align:top;">controller</td><td style="vertical-align:top;">:</td><td><div>default</div></td></tr><tr><td style="font-weight:bold;vertical-align:top;">cookies</td><td style="vertical-align:top;">:</td><td><div><table><tr><td style="font-weight:bold;vertical-align:top;">eyemaxinc</td><td style="vertical-align:top;">:</td><td><div>a%3A5%3A%7Bs%3A10%3A%22session_id%22%3Bs%3A32%3A%22e1f7b2a19fa021ca0c8637811a1737e7%22%3Bs%3A10%3A%22ip_address%22%3Bs%3A9%3A%22127.0.0.1%22%3Bs%3A10%3A%22user_agent%22%3Bs%3A109%3A%22Mozilla%2F5.0+%28Windows+NT+6.1%3B+WOW64%29+AppleWebKit%2F537.36+%28KHTML%2C+like+Gecko%29+Chrome%2F52.0.2743.116+Safari%2F537.36%22%3Bs%3A13%3A%22last_activity%22%3Bi%3A1472070919%3Bs%3A9%3A%22user_data%22%3Bs%3A0%3A%22%22%3B%7D4b73fe89543de401fd26ab3aed567a55<table><tr><td style="font-weight:bold;vertical-align:top;">comment</td><td style="vertical-align:top;">:</td><td><div></div></td></tr><tr><td style="font-weight:bold;vertical-align:top;">domain</td><td style="vertical-align:top;">:</td><td><div></div></td></tr><tr><td style="font-weight:bold;vertical-align:top;">expires</td><td style="vertical-align:top;">:</td><td><div></div></td></tr><tr><td style="font-weight:bold;vertical-align:top;">httponly</td><td style="vertical-align:top;">:</td><td><div></div></td></tr><tr><td style="font-weight:bold;vertical-align:top;">max-age</td><td style="vertical-align:top;">:</td><td><div></div></td></tr><tr><td style="font-weight:bold;vertical-align:top;">path</td><td style="vertical-align:top;">:</td><td><div></div></td></tr><tr><td style="font-weight:bold;vertical-align:top;">secure</td><td style="vertical-align:top;">:</td><td><div></div></td></tr><tr><td style="font-weight:bold;vertical-align:top;">version</td><td style="vertical-align:top;">:</td><td><div></div></td></tr></table></div></td></tr><tr><td style="font-weight:bold;vertical-align:top;">session_id_admin</td><td style="vertical-align:top;">:</td><td><div>127.0.0.1-859a262a-4997-41fa-8cb3-c0ec71f83d85<table><tr><td style="font-weight:bold;vertical-align:top;">comment</td><td style="vertical-align:top;">:</td><td><div></div></td></tr><tr><td style="font-weight:bold;vertical-align:top;">domain</td><td style="vertical-align:top;">:</td><td><div></div></td></tr><tr><td style="font-weight:bold;vertical-align:top;">expires</td><td style="vertical-align:top;">:</td><td><div></div></td></tr><tr><td style="font-weight:bold;vertical-align:top;">httponly</td><td style="vertical-align:top;">:</td><td><div></div></td></tr><tr><td style="font-weight:bold;vertical-align:top;">max-age</td><td style="vertical-align:top;">:</td><td><div></div></td></tr><tr><td style="font-weight:bold;vertical-align:top;">path</td><td style="vertical-align:top;">:</td><td><div></div></td></tr><tr><td style="font-weight:bold;vertical-align:top;">secure</td><td style="vertical-align:top;">:</td><td><div></div></td></tr><tr><td style="font-weight:bold;vertical-align:top;">version</td><td style="vertical-align:top;">:</td><td><div></div></td></tr></table></div></td></tr><tr><td style="font-weight:bold;vertical-align:top;">session_id_admin_panel</td><td style="vertical-align:top;">:</td><td><div>127.0.0.1-7828de8e-c81f-4833-9a44-71e08d239926<table><tr><td style="font-weight:bold;vertical-align:top;">comment</td><td style="vertical-align:top;">:</td><td><div></div></td></tr><tr><td style="font-weight:bold;vertical-align:top;">domain</td><td style="vertical-align:top;">:</td><td><div></div></td></tr><tr><td style="font-weight:bold;vertical-align:top;">expires</td><td style="vertical-align:top;">:</td><td><div></div></td></tr><tr><td style="font-weight:bold;vertical-align:top;">httponly</td><td style="vertical-align:top;">:</td><td><div></div></td></tr><tr><td style="font-weight:bold;vertical-align:top;">max-age</td><td style="vertical-align:top;">:</td><td><div></div></td></tr><tr><td style="font-weight:bold;vertical-align:top;">path</td><td style="vertical-align:top;">:</td><td><div></div></td></tr><tr><td style="font-weight:bold;vertical-align:top;">secure</td><td style="vertical-align:top;">:</td><td><div></div></td></tr><tr><td style="font-weight:bold;vertical-align:top;">version</td><td style="vertical-align:top;">:</td><td><div></div></td></tr></table></div></td></tr><tr><td style="font-weight:bold;vertical-align:top;">session_id_app3</td><td style="vertical-align:top;">:</td><td><div>1:f97e37ac-8ac7-4d2a-be5a-6fa651fa80a5<table><tr><td style="font-weight:bold;vertical-align:top;">comment</td><td style="vertical-align:top;">:</td><td><div></div></td></tr><tr><td style="font-weight:bold;vertical-align:top;">domain</td><td style="vertical-align:top;">:</td><td><div></div></td></tr><tr><td style="font-weight:bold;vertical-align:top;">expires</td><td style="vertical-align:top;">:</td><td><div></div></td></tr><tr><td style="font-weight:bold;vertical-align:top;">httponly</td><td style="vertical-align:top;">:</td><td><div></div></td></tr><tr><td style="font-weight:bold;vertical-align:top;">max-age</td><td style="vertical-align:top;">:</td><td><div></div></td></tr><tr><td style="font-weight:bold;vertical-align:top;">path</td><td style="vertical-align:top;">:</td><td><div></div></td></tr><tr><td style="font-weight:bold;vertical-align:top;">secure</td><td style="vertical-align:top;">:</td><td><div></div></td></tr><tr><td style="font-weight:bold;vertical-align:top;">version</td><td style="vertical-align:top;">:</td><td><div></div></td></tr></table></div></td></tr><tr><td style="font-weight:bold;vertical-align:top;">session_id_hw2</td><td style="vertical-align:top;">:</td><td><div>27:3cae75e7-b24c-4fb2-9b20-7ba5592c95ac<table><tr><td style="font-weight:bold;vertical-align:top;">comment</td><td style="vertical-align:top;">:</td><td><div></div></td></tr><tr><td style="font-weight:bold;vertical-align:top;">domain</td><td style="vertical-align:top;">:</td><td><div></div></td></tr><tr><td style="font-weight:bold;vertical-align:top;">expires</td><td style="vertical-align:top;">:</td><td><div></div></td></tr><tr><td style="font-weight:bold;vertical-align:top;">httponly</td><td style="vertical-align:top;">:</td><td><div></div></td></tr><tr><td style="font-weight:bold;vertical-align:top;">max-age</td><td style="vertical-align:top;">:</td><td><div></div></td></tr><tr><td style="font-weight:bold;vertical-align:top;">path</td><td style="vertical-align:top;">:</td><td><div></div></td></tr><tr><td style="font-weight:bold;vertical-align:top;">secure</td><td style="vertical-align:top;">:</td><td><div></div></td></tr><tr><td style="font-weight:bold;vertical-align:top;">version</td><td style="vertical-align:top;">:</td><td><div></div></td></tr></table></div></td></tr><tr><td style="font-weight:bold;vertical-align:top;">session_id_hw3</td><td style="vertical-align:top;">:</td><td><div>1:ae466643-f418-4ae8-a3f6-d4a7832c0604<table><tr><td style="font-weight:bold;vertical-align:top;">comment</td><td style="vertical-align:top;">:</td><td><div></div></td></tr><tr><td style="font-weight:bold;vertical-align:top;">domain</td><td style="vertical-align:top;">:</td><td><div></div></td></tr><tr><td style="font-weight:bold;vertical-align:top;">expires</td><td style="vertical-align:top;">:</td><td><div></div></td></tr><tr><td style="font-weight:bold;vertical-align:top;">httponly</td><td style="vertical-align:top;">:</td><td><div></div></td></tr><tr><td style="font-weight:bold;vertical-align:top;">max-age</td><td style="vertical-align:top;">:</td><td><div></div></td></tr><tr><td style="font-weight:bold;vertical-align:top;">path</td><td style="vertical-align:top;">:</td><td><div></div></td></tr><tr><td style="font-weight:bold;vertical-align:top;">secure</td><td style="vertical-align:top;">:</td><td><div></div></td></tr><tr><td style="font-weight:bold;vertical-align:top;">version</td><td style="vertical-align:top;">:</td><td><div></div></td></tr></table></div></td></tr><tr><td style="font-weight:bold;vertical-align:top;">session_id_myhw3</td><td style="vertical-align:top;">:</td><td><div>1:6cb683b0-a53a-4861-887e-da659affb81a<table><tr><td style="font-weight:bold;vertical-align:top;">comment</td><td style="vertical-align:top;">:</td><td><div></div></td></tr><tr><td style="font-weight:bold;vertical-align:top;">domain</td><td style="vertical-align:top;">:</td><td><div></div></td></tr><tr><td style="font-weight:bold;vertical-align:top;">expires</td><td style="vertical-align:top;">:</td><td><div></div></td></tr><tr><td style="font-weight:bold;vertical-align:top;">httponly</td><td style="vertical-align:top;">:</td><td><div></div></td></tr><tr><td style="font-weight:bold;vertical-align:top;">max-age</td><td style="vertical-align:top;">:</td><td><div></div></td></tr><tr><td style="font-weight:bold;vertical-align:top;">path</td><td style="vertical-align:top;">:</td><td><div></div></td></tr><tr><td style="font-weight:bold;vertical-align:top;">secure</td><td style="vertical-align:top;">:</td><td><div></div></td></tr><tr><td style="font-weight:bold;vertical-align:top;">version</td><td style="vertical-align:top;">:</td><td><div></div></td></tr></table></div></td></tr><tr><td style="font-weight:bold;vertical-align:top;">session_id_ready_hw3</td><td style="vertical-align:top;">:</td><td><div>1:761ed93c-257f-4757-adc8-e7ee007964d8<table><tr><td style="font-weight:bold;vertical-align:top;">comment</td><td style="vertical-align:top;">:</td><td><div></div></td></tr><tr><td style="font-weight:bold;vertical-align:top;">domain</td><td style="vertical-align:top;">:</td><td><div></div></td></tr><tr><td style="font-weight:bold;vertical-align:top;">expires</td><td style="vertical-align:top;">:</td><td><div></div></td></tr><tr><td style="font-weight:bold;vertical-align:top;">httponly</td><td style="vertical-align:top;">:</td><td><div></div></td></tr><tr><td style="font-weight:bold;vertical-align:top;">max-age</td><td style="vertical-align:top;">:</td><td><div></div></td></tr><tr><td style="font-weight:bold;vertical-align:top;">path</td><td style="vertical-align:top;">:</td><td><div></div></td></tr><tr><td style="font-weight:bold;vertical-align:top;">secure</td><td style="vertical-align:top;">:</td><td><div></div></td></tr><tr><td style="font-weight:bold;vertical-align:top;">version</td><td style="vertical-align:top;">:</td><td><div></div></td></tr></table></div></td></tr><tr><td style="font-weight:bold;vertical-align:top;">session_id_somehw3</td><td style="vertical-align:top;">:</td><td><div>127.0.0.1-7c5009a2-0e62-4a16-909d-9daa42307677<table><tr><td style="font-weight:bold;vertical-align:top;">comment</td><td style="vertical-align:top;">:</td><td><div></div></td></tr><tr><td style="font-weight:bold;vertical-align:top;">domain</td><td style="vertical-align:top;">:</td><td><div></div></td></tr><tr><td style="font-weight:bold;vertical-align:top;">expires</td><td style="vertical-align:top;">:</td><td><div></div></td></tr><tr><td style="font-weight:bold;vertical-align:top;">httponly</td><td style="vertical-align:top;">:</td><td><div></div></td></tr><tr><td style="font-weight:bold;vertical-align:top;">max-age</td><td style="vertical-align:top;">:</td><td><div></div></td></tr><tr><td style="font-weight:bold;vertical-align:top;">path</td><td style="vertical-align:top;">:</td><td><div></div></td></tr><tr><td style="font-weight:bold;vertical-align:top;">secure</td><td style="vertical-align:top;">:</td><td><div></div></td></tr><tr><td style="font-weight:bold;vertical-align:top;">version</td><td style="vertical-align:top;">:</td><td><div></div></td></tr></table></div></td></tr><tr><td style="font-weight:bold;vertical-align:top;">session_id_welcome</td><td style="vertical-align:top;">:</td><td><div>127.0.0.1-0cea1512-7e2b-4b1d-880a-65abaad57ac4<table><tr><td style="font-weight:bold;vertical-align:top;">comment</td><td style="vertical-align:top;">:</td><td><div></div></td></tr><tr><td style="font-weight:bold;vertical-align:top;">domain</td><td style="vertical-align:top;">:</td><td><div></div></td></tr><tr><td style="font-weight:bold;vertical-align:top;">expires</td><td style="vertical-align:top;">:</td><td><div></div></td></tr><tr><td style="font-weight:bold;vertical-align:top;">httponly</td><td style="vertical-align:top;">:</td><td><div></div></td></tr><tr><td style="font-weight:bold;vertical-align:top;">max-age</td><td style="vertical-align:top;">:</td><td><div></div></td></tr><tr><td style="font-weight:bold;vertical-align:top;">path</td><td style="vertical-align:top;">:</td><td><div></div></td></tr><tr><td style="font-weight:bold;vertical-align:top;">secure</td><td style="vertical-align:top;">:</td><td><div></div></td></tr><tr><td style="font-weight:bold;vertical-align:top;">version</td><td style="vertical-align:top;">:</td><td><div></div></td></tr></table></div></td></tr></table></div></td></tr><tr><td style="font-weight:bold;vertical-align:top;">env</td><td style="vertical-align:top;">:</td><td><div><table><tr><td style="font-weight:bold;vertical-align:top;">HTTP_ACCEPT</td><td style="vertical-align:top;">:</td><td><div>text/html,application/xhtml+xml,application/xml;q=0.9,image/webp,*/*;q=0.8</div></td></tr><tr><td style="font-weight:bold;vertical-align:top;">HTTP_ACCEPT_ENCODING</td><td style="vertical-align:top;">:</td><td><div>gzip, deflate, sdch, br</div></td></tr><tr><td style="font-weight:bold;vertical-align:top;">HTTP_ACCEPT_LANGUAGE</td><td style="vertical-align:top;">:</td><td><div>en-US,en;q=0.8,fa;q=0.6,es;q=0.4</div></td></tr><tr><td style="font-weight:bold;vertical-align:top;">HTTP_CACHE_CONTROL</td><td style="vertical-align:top;">:</td><td><div>no-cache</div></td></tr><tr><td style="font-weight:bold;vertical-align:top;">HTTP_CONNECTION</td><td style="vertical-align:top;">:</td><td><div>keep-alive</div></td></tr><tr><td style="font-weight:bold;vertical-align:top;">HTTP_COOKIE</td><td style="vertical-align:top;">:</td><td><div>eyemaxinc=a%3A5%3A%7Bs%3A10%3A%22session_id%22%3Bs%3A32%3A%22e1f7b2a19fa021ca0c8637811a1737e7%22%3Bs%3A10%3A%22ip_address%22%3Bs%3A9%3A%22127.0.0.1%22%3Bs%3A10%3A%22user_agent%22%3Bs%3A109%3A%22Mozilla%2F5.0+%28Windows+NT+6.1%3B+WOW64%29+AppleWebKit%2F537.36+%28KHTML%2C+like+Gecko%29+Chrome%2F52.0.2743.116+Safari%2F537.36%22%3Bs%3A13%3A%22last_activity%22%3Bi%3A1472070919%3Bs%3A9%3A%22user_data%22%3Bs%3A0%3A%22%22%3B%7D4b73fe89543de401fd26ab3aed567a55; session_id_hw2=&quot;27:3cae75e7-b24c-4fb2-9b20-7ba5592c95ac&quot;; session_id_somehw3=127.0.0.1-7c5009a2-0e62-4a16-909d-9daa42307677; session_id_hw3=&quot;1:ae466643-f418-4ae8-a3f6-d4a7832c0604&quot;; session_id_ready_hw3=&quot;1:761ed93c-257f-4757-adc8-e7ee007964d8&quot;; session_id_myhw3=&quot;1:6cb683b0-a53a-4861-887e-da659affb81a&quot;; session_id_app3=&quot;1:f97e37ac-8ac7-4d2a-be5a-6fa651fa80a5&quot;; session_id_welcome=127.0.0.1-0cea1512-7e2b-4b1d-880a-65abaad57ac4; session_id_admin=127.0.0.1-859a262a-4997-41fa-8cb3-c0ec71f83d85; session_id_admin_panel=127.0.0.1-7828de8e-c81f-4833-9a44-71e08d239926</div></td></tr><tr><td style="font-weight:bold;vertical-align:top;">HTTP_HOST</td><td style="vertical-align:top;">:</td><td><div>127.0.0.1:8000</div></td></tr><tr><td style="font-weight:bold;vertical-align:top;">HTTP_PRAGMA</td><td style="vertical-align:top;">:</td><td><div>no-cache</div></td></tr><tr><td style="font-weight:bold;vertical-align:top;">HTTP_REFERER</td><td style="vertical-align:top;">:</td><td><div>http://127.0.0.1:8000/Admin_Panel/default/inventory</div></td></tr><tr><td style="font-weight:bold;vertical-align:top;">HTTP_UPGRADE_INSECURE_REQUESTS</td><td style="vertical-align:top;">:</td><td><div>1</div></td></tr><tr><td style="font-weight:bold;vertical-align:top;">HTTP_USER_AGENT</td><td style="vertical-align:top;">:</td><td><div>Mozilla/5.0 (Windows NT 6.1; WOW64) AppleWebKit/537.36 (KHTML, like Gecko) Chrome/54.0.2840.71 Safari/537.36</div></td></tr><tr><td style="font-weight:bold;vertical-align:top;">PATH_INFO</td><td style="vertical-align:top;">:</td><td><div>/Admin_Panel/default/products</div></td></tr><tr><td style="font-weight:bold;vertical-align:top;">QUERY_STRING</td><td style="vertical-align:top;">:</td><td><div></div></td></tr><tr><td style="font-weight:bold;vertical-align:top;">REMOTE_ADDR</td><td style="vertical-align:top;">:</td><td><div>127.0.0.1</div></td></tr><tr><td style="font-weight:bold;vertical-align:top;">REMOTE_PORT</td><td style="vertical-align:top;">:</td><td><div>24470</div></td></tr><tr><td style="font-weight:bold;vertical-align:top;">REQUEST_METHOD</td><td style="vertical-align:top;">:</td><td><div>GET</div></td></tr><tr><td style="font-weight:bold;vertical-align:top;">SCRIPT_NAME</td><td style="vertical-align:top;">:</td><td><div></div></td></tr><tr><td style="font-weight:bold;vertical-align:top;">SERVER_NAME</td><td style="vertical-align:top;">:</td><td><div>Amirali-PC</div></td></tr><tr><td style="font-weight:bold;vertical-align:top;">SERVER_PORT</td><td style="vertical-align:top;">:</td><td><div>8000</div></td></tr><tr><td style="font-weight:bold;vertical-align:top;">SERVER_PROTOCOL</td><td style="vertical-align:top;">:</td><td><div>HTTP/1.1</div></td></tr><tr><td style="font-weight:bold;vertical-align:top;">SERVER_SOFTWARE</td><td style="vertical-align:top;">:</td><td><div>Rocket 1.2.6</div></td></tr><tr><td style="font-weight:bold;vertical-align:top;">app_folders</td><td style="vertical-align:top;">:</td><td><div>set([&#x27;D:\\\\online-retail\\\\Online-Retail-Admin\\\\web2py\\\\applications\\\\Admin_Panel\\\\&#x27;, &#x27;D:\\\\online-retail\\\\Online-Retail-Admin\\\\web2py\\\\applications\\\\admin\\\\&#x27;, &#x27;D:\\\\online-retail\\\\Online-Retail-Admin\\\\web2py\\\\applications\\\\welcome\\\\&#x27;])</div></td></tr><tr><td style="font-weight:bold;vertical-align:top;">applications_parent</td><td style="vertical-align:top;">:</td><td><div>D:\\online-retail\\Online-Retail-Admin\\web2py</div></td></tr><tr><td style="font-weight:bold;vertical-align:top;">cmd_args</td><td style="vertical-align:top;">:</td><td><div><table></table></div></td></tr><tr><td style="font-weight:bold;vertical-align:top;">cmd_options</td><td style="vertical-align:top;">:</td><td><div>&lt;Values at 0x362db48: {&#x27;verbose&#x27;: False, &#x27;ip&#x27;: &#x27;127.0.0.1&#x27;, &#x27;debuglevel&#x27;: 30, &#x27;with_scheduler&#x27;: False, &#x27;shutdown_timeout&#x27;: 5, &#x27;taskbar&#x27;: False, &#x27;with_coverage&#x27;: False, &#x27;pid_filename&#x27;: &#x27;httpserver.pid&#x27;, &#x27;maxthreads&#x27;: None, &#x27;softcron&#x27;: False, &#x27;server_name&#x27;: &#x27;Amirali-PC&#x27;, &#x27;bpython&#x27;: False, &#x27;nogui&#x27;: False, &#x27;port&#x27;: 8000, &#x27;print_errors&#x27;: False, &#x27;extcron&#x27;: False, &#x27;runcron&#x27;: False, &#x27;run_system_tests&#x27;: False, &#x27;test&#x27;: None, &#x27;folder&#x27;: &#x27;D:\\\\online-retail\\\\Online-Retail-Admin\\\\web2py&#x27;, &#x27;config&#x27;: &#x27;&#x27;, &#x27;minthreads&#x27;: None, &#x27;shell&#x27;: None, &#x27;run&#x27;: &#x27;&#x27;, &#x27;log_filename&#x27;: &#x27;httpserver.log&#x27;, &#x27;profiler_dir&#x27;: None, &#x27;args&#x27;: [&#x27;&#x27;], &#x27;socket_timeout&#x27;: 5, &#x27;ssl_ca_certificate&#x27;: None, &#x27;scheduler&#x27;: None, &#x27;interfaces&#x27;: None, &#x27;ssl_private_key&#x27;: &#x27;&#x27;, &#x27;gae&#x27;: None, &#x27;password&#x27;: &#x27;******&#x27;, &#x27;request_queue_size&#x27;: 5, &#x27;ssl_certificate&#x27;: &#x27;&#x27;, &#x27;cronjob&#x27;: False, &#x27;numthreads&#x27;: None, &#x27;quiet&#x27;: False, &#x27;import_models&#x27;: False, &#x27;timeout&#x27;: 10, &#x27;plain&#x27;: False, &#x27;nobanner&#x27;: False}&gt;</div></td></tr><tr><td style="font-weight:bold;vertical-align:top;">db_sessions</td><td style="vertical-align:top;">:</td><td><div>set([])</div></td></tr><tr><td style="font-weight:bold;vertical-align:top;">debugging</td><td style="vertical-align:top;">:</td><td><div>False</div></td></tr><tr><td style="font-weight:bold;vertical-align:top;">gluon_parent</td><td style="vertical-align:top;">:</td><td><div>D:\\online-retail\\Online-Retail-Admin\\web2py</div></td></tr><tr><td style="font-weight:bold;vertical-align:top;">http_accept</td><td style="vertical-align:top;">:</td><td><div>text/html,application/xhtml+xml,application/xml;q=0.9,image/webp,*/*;q=0.8</div></td></tr><tr><td style="font-weight:bold;vertical-align:top;">http_accept_encoding</td><td style="vertical-align:top;">:</td><td><div>gzip, deflate, sdch, br</div></td></tr><tr><td style="font-weight:bold;vertical-align:top;">http_accept_language</td><td style="vertical-align:top;">:</td><td><div>en-US,en;q=0.8,fa;q=0.6,es;q=0.4</div></td></tr><tr><td style="font-weight:bold;vertical-align:top;">http_cache_control</td><td style="vertical-align:top;">:</td><td><div>no-cache</div></td></tr><tr><td style="font-weight:bold;vertical-align:top;">http_connection</td><td style="vertical-align:top;">:</td><td><div>keep-alive</div></td></tr><tr><td style="font-weight:bold;vertical-align:top;">http_cookie</td><td style="vertical-align:top;">:</td><td><div>eyemaxinc=a%3A5%3A%7Bs%3A10%3A%22session_id%22%3Bs%3A32%3A%22e1f7b2a19fa021ca0c8637811a1737e7%22%3Bs%3A10%3A%22ip_address%22%3Bs%3A9%3A%22127.0.0.1%22%3Bs%3A10%3A%22user_agent%22%3Bs%3A109%3A%22Mozilla%2F5.0+%28Windows+NT+6.1%3B+WOW64%29+AppleWebKit%2F537.36+%28KHTML%2C+like+Gecko%29+Chrome%2F52.0.2743.116+Safari%2F537.36%22%3Bs%3A13%3A%22last_activity%22%3Bi%3A1472070919%3Bs%3A9%3A%22user_data%22%3Bs%3A0%3A%22%22%3B%7D4b73fe89543de401fd26ab3aed567a55; session_id_hw2=&quot;27:3cae75e7-b24c-4fb2-9b20-7ba5592c95ac&quot;; session_id_somehw3=127.0.0.1-7c5009a2-0e62-4a16-909d-9daa42307677; session_id_hw3=&quot;1:ae466643-f418-4ae8-a3f6-d4a7832c0604&quot;; session_id_ready_hw3=&quot;1:761ed93c-257f-4757-adc8-e7ee007964d8&quot;; session_id_myhw3=&quot;1:6cb683b0-a53a-4861-887e-da659affb81a&quot;; session_id_app3=&quot;1:f97e37ac-8ac7-4d2a-be5a-6fa651fa80a5&quot;; session_id_welcome=127.0.0.1-0cea1512-7e2b-4b1d-880a-65abaad57ac4; session_id_admin=127.0.0.1-859a262a-4997-41fa-8cb3-c0ec71f83d85; session_id_admin_panel=127.0.0.1-7828de8e-c81f-4833-9a44-71e08d239926</div></td></tr><tr><td style="font-weight:bold;vertical-align:top;">http_host</td><td style="vertical-align:top;">:</td><td><div>127.0.0.1:8000</div></td></tr><tr><td style="font-weight:bold;vertical-align:top;">http_pragma</td><td style="vertical-align:top;">:</td><td><div>no-cache</div></td></tr><tr><td style="font-weight:bold;vertical-align:top;">http_referer</td><td style="vertical-align:top;">:</td><td><div>http://127.0.0.1:8000/Admin_Panel/default/inventory</div></td></tr><tr><td style="font-weight:bold;vertical-align:top;">http_upgrade_insecure_requests</td><td style="vertical-align:top;">:</td><td><div>1</div></td></tr><tr><td style="font-weight:bold;vertical-align:top;">http_user_agent</td><td style="vertical-align:top;">:</td><td><div>Mozilla/5.0 (Windows NT 6.1; WOW64) AppleWebKit/537.36 (KHTML, like Gecko) Chrome/54.0.2840.71 Safari/537.36</div></td></tr><tr><td style="font-weight:bold;vertical-align:top;">is_jython</td><td style="vertical-align:top;">:</td><td><div>False</div></td></tr><tr><td style="font-weight:bold;vertical-align:top;">is_pypy</td><td style="vertical-align:top;">:</td><td><div>False</div></td></tr><tr><td style="font-weight:bold;vertical-align:top;">is_source</td><td style="vertical-align:top;">:</td><td><div>True</div></td></tr><tr><td style="font-weight:bold;vertical-align:top;">local_hosts</td><td style="vertical-align:top;">:</td><td><div><table><tr><td><div>fe80::888c:d064:a394:fc1%12</div></td></tr><tr><td><div>2601:647:ca00:ad45:f8e5:53e9:d116:a5</div></td></tr><tr><td><div>::ffff:127.0.0.1</div></td></tr><tr><td><div>::1</div></td></tr><tr><td><div>Amirali-PC.hsd1.ca.comcast.net</div></td></tr><tr><td><div>Amirali-PC</div></td></tr><tr><td><div>2601:647:ca00:ad45:888c:d064:a394:fc1</div></td></tr><tr><td><div>10.0.0.176</div></td></tr><tr><td><div>127.0.0.1</div></td></tr></table></div></td></tr><tr><td style="font-weight:bold;vertical-align:top;">path_info</td><td style="vertical-align:top;">:</td><td><div>/Admin_Panel/default/products</div></td></tr><tr><td style="font-weight:bold;vertical-align:top;">query_string</td><td style="vertical-align:top;">:</td><td><div></div></td></tr><tr><td style="font-weight:bold;vertical-align:top;">remote_addr</td><td style="vertical-align:top;">:</td><td><div>127.0.0.1</div></td></tr><tr><td style="font-weight:bold;vertical-align:top;">remote_port</td><td style="vertical-align:top;">:</td><td><div>24470</div></td></tr><tr><td style="font-weight:bold;vertical-align:top;">request_method</td><td style="vertical-align:top;">:</td><td><div>GET</div></td></tr><tr><td style="font-weight:bold;vertical-align:top;">request_uri</td><td style="vertical-align:top;">:</td><td><div>/Admin_Panel/default/products</div></td></tr><tr><td style="font-weight:bold;vertical-align:top;">script_name</td><td style="vertical-align:top;">:</td><td><div></div></td></tr><tr><td style="font-weight:bold;vertical-align:top;">server_name</td><td style="vertical-align:top;">:</td><td><div>Amirali-PC</div></td></tr><tr><td style="font-weight:bold;vertical-align:top;">server_port</td><td style="vertical-align:top;">:</td><td><div>8000</div></td></tr><tr><td style="font-weight:bold;vertical-align:top;">server_protocol</td><td style="vertical-align:top;">:</td><td><div>HTTP/1.1</div></td></tr><tr><td style="font-weight:bold;vertical-align:top;">server_software</td><td style="vertical-align:top;">:</td><td><div>Rocket 1.2.6</div></td></tr><tr><td style="font-weight:bold;vertical-align:top;">web2py_path</td><td style="vertical-align:top;">:</td><td><div>D:\\online-retail\\Online-Retail-Admin\\web2py</div></td></tr><tr><td style="font-weight:bold;vertical-align:top;">web2py_version</td><td style="vertical-align:top;">:</td><td><div>2.14.6-stable+timestamp.2016.05.10.00.21.47</div></td></tr><tr><td style="font-weight:bold;vertical-align:top;">wsgi.errors</td><td style="vertical-align:top;">:</td><td><div>&lt;open file &#x27;&lt;stderr&gt;&#x27;, mode &#x27;w&#x27; at 0x01DCD0D0&gt;</div></td></tr><tr><td style="font-weight:bold;vertical-align:top;">wsgi.file_wrapper</td><td style="vertical-align:top;">:</td><td><div>&lt;class wsgiref.util.FileWrapper at 0x035F3B20&gt;</div></td></tr><tr><td style="font-weight:bold;vertical-align:top;">wsgi.input</td><td style="vertical-align:top;">:</td><td><div>&lt;socket._fileobject object at 0x0614C8F0&gt;</div></td></tr><tr><td style="font-weight:bold;vertical-align:top;">wsgi.multiprocess</td><td style="vertical-align:top;">:</td><td><div>False</div></td></tr><tr><td style="font-weight:bold;vertical-align:top;">wsgi.multithread</td><td style="vertical-align:top;">:</td><td><div>True</div></td></tr><tr><td style="font-weight:bold;vertical-align:top;">wsgi.run_once</td><td style="vertical-align:top;">:</td><td><div>False</div></td></tr><tr><td style="font-weight:bold;vertical-align:top;">wsgi.url_scheme</td><td style="vertical-align:top;">:</td><td><div>http</div></td></tr><tr><td style="font-weight:bold;vertical-align:top;">wsgi.version</td><td style="vertical-align:top;">:</td><td><div><table><tr><td><div>1</div></td></tr><tr><td><div>0</div></td></tr></table></div></td></tr><tr><td style="font-weight:bold;vertical-align:top;">wsgi_errors</td><td style="vertical-align:top;">:</td><td><div>&lt;open file &#x27;&lt;stderr&gt;&#x27;, mode &#x27;w&#x27; at 0x01DCD0D0&gt;</div></td></tr><tr><td style="font-weight:bold;vertical-align:top;">wsgi_file_wrapper</td><td style="vertical-align:top;">:</td><td><div>&lt;class wsgiref.util.FileWrapper at 0x035F3B20&gt;</div></td></tr><tr><td style="font-weight:bold;vertical-align:top;">wsgi_input</td><td style="vertical-align:top;">:</td><td><div>&lt;socket._fileobject object at 0x0614C8F0&gt;</div></td></tr><tr><td style="font-weight:bold;vertical-align:top;">wsgi_multiprocess</td><td style="vertical-align:top;">:</td><td><div>False</div></td></tr><tr><td style="font-weight:bold;vertical-align:top;">wsgi_multithread</td><td style="vertical-align:top;">:</td><td><div>True</div></td></tr><tr><td style="font-weight:bold;vertical-align:top;">wsgi_run_once</td><td style="vertical-align:top;">:</td><td><div>False</div></td></tr><tr><td style="font-weight:bold;vertical-align:top;">wsgi_url_scheme</td><td style="vertical-align:top;">:</td><td><div>http</div></td></tr><tr><td style="font-weight:bold;vertical-align:top;">wsgi_version</td><td style="vertical-align:top;">:</td><td><div><table><tr><td><div>1</div></td></tr><tr><td><div>0</div></td></tr></table></div></td></tr></table></div></td></tr><tr><td style="font-weight:bold;vertical-align:top;">extension</td><td style="vertical-align:top;">:</td><td><div>html</div></td></tr><tr><td style="font-weight:bold;vertical-align:top;">folder</td><td style="vertical-align:top;">:</td><td><div>D:\\online-retail\\Online-Retail-Admin\\web2py\\applications\\Admin_Panel\\</div></td></tr><tr><td style="font-weight:bold;vertical-align:top;">function</td><td style="vertical-align:top;">:</td><td><div>products</div></td></tr><tr><td style="font-weight:bold;vertical-align:top;">global_settings</td><td style="vertical-align:top;">:</td><td><div><table><tr><td style="font-weight:bold;vertical-align:top;">app_folders</td><td style="vertical-align:top;">:</td><td><div>set([&#x27;D:\\\\online-retail\\\\Online-Retail-Admin\\\\web2py\\\\applications\\\\Admin_Panel\\\\&#x27;, &#x27;D:\\\\online-retail\\\\Online-Retail-Admin\\\\web2py\\\\applications\\\\admin\\\\&#x27;, &#x27;D:\\\\online-retail\\\\Online-Retail-Admin\\\\web2py\\\\applications\\\\welcome\\\\&#x27;])</div></td></tr><tr><td style="font-weight:bold;vertical-align:top;">applications_parent</td><td style="vertical-align:top;">:</td><td><div>D:\\online-retail\\Online-Retail-Admin\\web2py</div></td></tr><tr><td style="font-weight:bold;vertical-align:top;">cmd_args</td><td style="vertical-align:top;">:</td><td><div><table></table></div></td></tr><tr><td style="font-weight:bold;vertical-align:top;">cmd_options</td><td style="vertical-align:top;">:</td><td><div>&lt;Values at 0x362db48: {&#x27;verbose&#x27;: False, &#x27;ip&#x27;: &#x27;127.0.0.1&#x27;, &#x27;debuglevel&#x27;: 30, &#x27;with_scheduler&#x27;: False, &#x27;shutdown_timeout&#x27;: 5, &#x27;taskbar&#x27;: False, &#x27;with_coverage&#x27;: False, &#x27;pid_filename&#x27;: &#x27;httpserver.pid&#x27;, &#x27;maxthreads&#x27;: None, &#x27;softcron&#x27;: False, &#x27;server_name&#x27;: &#x27;Amirali-PC&#x27;, &#x27;bpython&#x27;: False, &#x27;nogui&#x27;: False, &#x27;port&#x27;: 8000, &#x27;print_errors&#x27;: False, &#x27;extcron&#x27;: False, &#x27;runcron&#x27;: False, &#x27;run_system_tests&#x27;: False, &#x27;test&#x27;: None, &#x27;folder&#x27;: &#x27;D:\\\\online-retail\\\\Online-Retail-Admin\\\\web2py&#x27;, &#x27;config&#x27;: &#x27;&#x27;, &#x27;minthreads&#x27;: None, &#x27;shell&#x27;: None, &#x27;run&#x27;: &#x27;&#x27;, &#x27;log_filename&#x27;: &#x27;httpserver.log&#x27;, &#x27;profiler_dir&#x27;: None, &#x27;args&#x27;: [&#x27;&#x27;], &#x27;socket_timeout&#x27;: 5, &#x27;ssl_ca_certificate&#x27;: None, &#x27;scheduler&#x27;: None, &#x27;interfaces&#x27;: None, &#x27;ssl_private_key&#x27;: &#x27;&#x27;, &#x27;gae&#x27;: None, &#x27;password&#x27;: &#x27;******&#x27;, &#x27;request_queue_size&#x27;: 5, &#x27;ssl_certificate&#x27;: &#x27;&#x27;, &#x27;cronjob&#x27;: False, &#x27;numthreads&#x27;: None, &#x27;quiet&#x27;: False, &#x27;import_models&#x27;: False, &#x27;timeout&#x27;: 10, &#x27;plain&#x27;: False, &#x27;nobanner&#x27;: False}&gt;</div></td></tr><tr><td style="font-weight:bold;vertical-align:top;">db_sessions</td><td style="vertical-align:top;">:</td><td><div>set([])</div></td></tr><tr><td style="font-weight:bold;vertical-align:top;">debugging</td><td style="vertical-align:top;">:</td><td><div>False</div></td></tr><tr><td style="font-weight:bold;vertical-align:top;">gluon_parent</td><td style="vertical-align:top;">:</td><td><div>D:\\online-retail\\Online-Retail-Admin\\web2py</div></td></tr><tr><td style="font-weight:bold;vertical-align:top;">is_jython</td><td style="vertical-align:top;">:</td><td><div>False</div></td></tr><tr><td style="font-weight:bold;vertical-align:top;">is_pypy</td><td style="vertical-align:top;">:</td><td><div>False</div></td></tr><tr><td style="font-weight:bold;vertical-align:top;">is_source</td><td style="vertical-align:top;">:</td><td><div>True</div></td></tr><tr><td style="font-weight:bold;vertical-align:top;">local_hosts</td><td style="vertical-align:top;">:</td><td><div><table><tr><td><div>fe80::888c:d064:a394:fc1%12</div></td></tr><tr><td><div>2601:647:ca00:ad45:f8e5:53e9:d116:a5</div></td></tr><tr><td><div>::ffff:127.0.0.1</div></td></tr><tr><td><div>::1</div></td></tr><tr><td><div>Amirali-PC.hsd1.ca.comcast.net</div></td></tr><tr><td><div>Amirali-PC</div></td></tr><tr><td><div>2601:647:ca00:ad45:888c:d064:a394:fc1</div></td></tr><tr><td><div>10.0.0.176</div></td></tr><tr><td><div>127.0.0.1</div></td></tr></table></div></td></tr><tr><td style="font-weight:bold;vertical-align:top;">web2py_version</td><td style="vertical-align:top;">:</td><td><div>2.14.6-stable+timestamp.2016.05.10.00.21.47</div></td></tr></table></div></td></tr><tr><td style="font-weight:bold;vertical-align:top;">is_https</td><td style="vertical-align:top;">:</td><td><div>False</div></td></tr><tr><td style="font-weight:bold;vertical-align:top;">is_local</td><td style="vertical-align:top;">:</td><td><div>True</div></td></tr><tr><td style="font-weight:bold;vertical-align:top;">is_restful</td><td style="vertical-align:top;">:</td><td><div>False</div></td></tr><tr><td style="font-weight:bold;vertical-align:top;">is_scheduler</td><td style="vertical-align:top;">:</td><td><div>False</div></td></tr><tr><td style="font-weight:bold;vertical-align:top;">is_shell</td><td style="vertical-align:top;">:</td><td><div>False</div></td></tr><tr><td style="font-weight:bold;vertical-align:top;">now</td><td style="vertical-align:top;">:</td><td><div>datetime.datetime(2016, 11, 11, 21, 37, 25, 399000)</div></td></tr><tr><td style="font-weight:bold;vertical-align:top;">raw_args</td><td style="vertical-align:top;">:</td><td><div></div></td></tr><tr><td style="font-weight:bold;vertical-align:top;">raw_extension</td><td style="vertical-align:top;">:</td><td><div>None</div></td></tr><tr><td style="font-weight:bold;vertical-align:top;">url</td><td style="vertical-align:top;">:</td><td><div>/Admin_Panel/default/products</div></td></tr><tr><td style="font-weight:bold;vertical-align:top;">utcnow</td><td style="vertical-align:top;">:</td><td><div>datetime.datetime(2016, 11, 12, 5, 37, 25, 399000)</div></td></tr><tr><td style="font-weight:bold;vertical-align:top;">wsgi</td><td style="vertical-align:top;">:</td><td><div>&lt;gluon.main.LazyWSGI object at 0x063C7550&gt;</div></td></tr></table></div>'
tRp57
sS'frames'
p58
(lp59
(dp60
S'file'
p61
S'D:\\online-retail\\Online-Retail-Admin\\web2py\\gluon\\restricted.py'
p62
sS'dump'
p63
(dp64
S'environment'
p65
S"{'A': <class 'gluon.html.A'>, 'ANY_OF': <class 'gluon.validators.ANY_OF'>, 'ASSIGNJS': <function ASSIGNJS>, 'AppConfig': <function AppConfig>, 'Auth': <class 'gluon.tools.Auth'>, 'B': <class 'gluon.html.B'>, 'BEAUTIFY': <class 'gluon.html.BEAUTIFY'>, 'BODY': <class 'gluon.html.BODY'>, 'BR': <class 'gluon.html.BR'>, 'BUTTON': <class 'gluon.html.BUTTON'>, ...}"
p66
sS'ccode'
p67
S'<code object <module> at 05C5B608, file "D:\\onli...Admin_Panel\\views\\default/products.html", line 1>'
p68
ssS'lnum'
p69
I227
sS'lines'
p70
(dp71
I224
S'            ccode = code'
p72
sI225
S'        else:'
p73
sI226
S'            ccode = compile2(code, layer)'
p74
sI227
S'        exec ccode in environment'
p75
sI228
S'    except HTTP:'
p76
sI229
S'        raise'
p77
sI230
S'    except RestrictedError:'
p78
sI231
S'        # do not encapsulate (obfuscate) the original RestrictedError'
p79
sI222
S'    try:'
p80
sI223
S'        if isinstance(code, types.CodeType):'
p81
ssS'call'
p82
S'(code=r"left_sidebar_enabled,right_sidebar_enabled=False...ript>\\r\\n  </body>\\r\\n</html>\\r\\n\', escape=False)", environment={\'A\': <class \'gluon.html.A\'>, \'ANY_OF\': <class \'gluon.validators.ANY_OF\'>, \'ASSIGNJS\': <function ASSIGNJS>, \'AppConfig\': <function AppConfig>, \'Auth\': <class \'gluon.tools.Auth\'>, \'B\': <class \'gluon.html.B\'>, \'BEAUTIFY\': <class \'gluon.html.BEAUTIFY\'>, \'BODY\': <class \'gluon.html.BODY\'>, \'BR\': <class \'gluon.html.BR\'>, \'BUTTON\': <class \'gluon.html.BUTTON\'>, ...}, layer=r\'D:\\online-retail\\Online-Retail-Admin\\web2py\\applications\\Admin_Panel\\views\\default/products.html\')'
p83
sS'func'
p84
S'restricted'
p85
sa(dp86
g61
S'D:\\online-retail\\Online-Retail-Admin\\web2py\\applications\\Admin_Panel\\views\\default\\products.html'
p87
sg63
(dp88
sg69
I67
sg70
(dp89
I64
S'response.write(\'\\r\\n\\r\\n\\r\\n<div id="product_container">\\r\\n    \', escape=False)'
p90
sI65
S'for item in test:'
p91
sI66
S"    response.write('\\r\\n    ', escape=False)"
p92
sI67
S'    response.write(item[3])'
p93
sI68
S"    response.write('\\r\\n    <br>\\r\\n    ', escape=False)"
p94
sI69
S'    pass'
p95
sI70
S"response.write('\\r\\n</div>', escape=False)"
p96
sI71
S"response.write('\\r\\n\\r\\n    ', escape=False)"
p97
sI72
S'response.write(\' <!-- this is default footer --> <!-- taking input from html files -->\\r\\n    <footer class="footer">\\r\\n    </footer>\\r\\n    \', escape=False)'
p98
sI73
S'response.write(\'\\r\\n    <!-- The javascript =============================== -->\\r\\n    <script src="\', escape=False)'
p99
sI74
S"response.write(URL('static','js/bootstrap.min.js'))"
p100
sI75
S'response.write(\'"></script>\\r\\n    <script src="\', escape=False)'
p101
sI76
S"response.write(URL('static','js/web2py-bootstrap3.js'))"
p102
sI77
S'response.write(\'"></script>\\r\\n    \', escape=False)'
p103
sI58
S"    response.write(MENU(response.menu, _class='nav navbar-nav'))"
p104
sI59
S"    response.write('\\r\\n                ', escape=False)"
p105
sI60
S'    pass'
p106
sI61
S"response.write('\\r\\n        </div>\\r\\n    </div>\\r\\n\\r\\n    <!-- Masthead ===================================== -->    \\r\\n    ', escape=False)"
p107
sI62
S'response.write(\' <!-- taking input from html files -->\\r\\n        <div id=\\\'side-bar\\\'>\\r\\n            <a class=\\\'pad5 display-block text-shadow\\\' href=\\\'index\\\'><img src="/Admin_Panel/static/images/N-Home2.png" aria-hidden="true" alt="Home"></a>\\r\\n            <a class=\\\'pad5 display-block text-shadow\\\' href=\\\'stats\\\'><img src="/Admin_Panel/static/images/N-Reports2.png" aria-hidden="true" alt="Stats"></a>\\r\\n            <a class=\\\'pad5 display-block text-shadow\\\' href=\\\'supplier_select\\\'><img src="/Admin_Panel/static/images/N-SM2.png" aria-hidden="true" alt="Supplier Select"></a>\\r\\n            <a class=\\\'pad5 display-block text-shadow\\\' href=\\\'inventory_management\\\'><img src="/Admin_Panel/static/images/N-PM2.png" aria-hidden="true" alt="Inventory Management"></a>\\r\\n        </div>\\r\\n    \', escape=False)'
p108
sI63
S"response.write('\\r\\n    <!-- Main ========================================= -->\\r\\n    <!-- Begin page content -->\\r\\n    ', escape=False)"
p109
ssg82
S'()'
p110
sg84
S'<module>'
p111
sasS'pyver'
p112
S'Python 2.7.12: C:\\Python27\\python2.exe (prefix: C:\\Python27)'
p113
sS'session'
p114
g56
(S's\x1a\x00\x00\x00<div><table></table></div>'
tRp115
sS'etype'
p116
S"<type 'exceptions.KeyError'>"
p117
sS'date'
p118
S'Fri Nov 11 21:37:25 2016'
p119
sS'response'
p120
g56
(S's- \x00\x00<div><table><tr><td style="font-weight:bold;vertical-align:top;">body</td><td style="vertical-align:top;">:</td><td><div>&lt;cStringIO.StringO object at 0x063DE180&gt;</div></td></tr><tr><td style="font-weight:bold;vertical-align:top;">cookies</td><td style="vertical-align:top;">:</td><td><div><table><tr><td style="font-weight:bold;vertical-align:top;">session_id_admin_panel</td><td style="vertical-align:top;">:</td><td><div>127.0.0.1-f1648096-ae6a-4c5a-966f-80909b9c18dc<table><tr><td style="font-weight:bold;vertical-align:top;">comment</td><td style="vertical-align:top;">:</td><td><div></div></td></tr><tr><td style="font-weight:bold;vertical-align:top;">domain</td><td style="vertical-align:top;">:</td><td><div></div></td></tr><tr><td style="font-weight:bold;vertical-align:top;">expires</td><td style="vertical-align:top;">:</td><td><div></div></td></tr><tr><td style="font-weight:bold;vertical-align:top;">httponly</td><td style="vertical-align:top;">:</td><td><div></div></td></tr><tr><td style="font-weight:bold;vertical-align:top;">max-age</td><td style="vertical-align:top;">:</td><td><div></div></td></tr><tr><td style="font-weight:bold;vertical-align:top;">path</td><td style="vertical-align:top;">:</td><td><div>/</div></td></tr><tr><td style="font-weight:bold;vertical-align:top;">secure</td><td style="vertical-align:top;">:</td><td><div></div></td></tr><tr><td style="font-weight:bold;vertical-align:top;">version</td><td style="vertical-align:top;">:</td><td><div></div></td></tr></table></div></td></tr></table></div></td></tr><tr><td style="font-weight:bold;vertical-align:top;">delimiters</td><td style="vertical-align:top;">:</td><td><div><table><tr><td><div>{{</div></td></tr><tr><td><div>}}</div></td></tr></table></div></td></tr><tr><td style="font-weight:bold;vertical-align:top;">files</td><td style="vertical-align:top;">:</td><td><div><table><tr><td><div>/Admin_Panel/static/js/jquery.js</div></td></tr><tr><td><div>/Admin_Panel/static/css/calendar.css</div></td></tr><tr><td><div>/Admin_Panel/static/js/calendar.js</div></td></tr><tr><td><div>/Admin_Panel/static/js/web2py.js</div></td></tr></table></div></td></tr><tr><td style="font-weight:bold;vertical-align:top;">flash</td><td style="vertical-align:top;">:</td><td><div></div></td></tr><tr><td style="font-weight:bold;vertical-align:top;">form_label_separator</td><td style="vertical-align:top;">:</td><td><div></div></td></tr><tr><td style="font-weight:bold;vertical-align:top;">formstyle</td><td style="vertical-align:top;">:</td><td><div>bootstrap3_inline</div></td></tr><tr><td style="font-weight:bold;vertical-align:top;">generic_patterns</td><td style="vertical-align:top;">:</td><td><div><table><tr><td><div>*</div></td></tr></table></div></td></tr><tr><td style="font-weight:bold;vertical-align:top;">google_analytics_id</td><td style="vertical-align:top;">:</td><td><div>None</div></td></tr><tr><td style="font-weight:bold;vertical-align:top;">headers</td><td style="vertical-align:top;">:</td><td><div><table><tr><td style="font-weight:bold;vertical-align:top;">X-Powered-By</td><td style="vertical-align:top;">:</td><td><div>web2py</div></td></tr></table></div></td></tr><tr><td style="font-weight:bold;vertical-align:top;">logo</td><td style="vertical-align:top;">:</td><td><div><a class="navbar-brand" href="http://www.web2py.com/" id="web2py-logo"><b>web<span>2</span>py</b>&trade;&nbsp;</a></div></td></tr><tr><td style="font-weight:bold;vertical-align:top;">menu</td><td style="vertical-align:top;">:</td><td><div><table><tr><td><div><table><tr><td><div>Home</div></td></tr><tr><td><div>False</div></td></tr><tr><td><div>/Admin_Panel/default/index</div></td></tr><tr><td><div><table></table></div></td></tr></table></div></td></tr><tr><td><div><table><tr><td><div>Bar Chart</div></td></tr><tr><td><div>False</div></td></tr><tr><td><div>/Admin_Panel/default/chart_bars</div></td></tr></table></div></td></tr><tr><td><div><table><tr><td><div>Inventory</div></td></tr><tr><td><div>False</div></td></tr><tr><td><div>/Admin_Panel/default/inventory</div></td></tr></table></div></td></tr><tr><td><div><table><tr><td><div>Suppliers</div></td></tr><tr><td><div>False</div></td></tr><tr><td><div>/Admin_Panel/default/supplier</div></td></tr></table></div></td></tr><tr><td><div><table><tr><td><div>Statistics</div></td></tr><tr><td><div>False</div></td></tr><tr><td><div>/Admin_Panel/default/stats</div></td></tr></table></div></td></tr><tr><td><div><table><tr><td><div>Products</div></td></tr><tr><td><div>False</div></td></tr><tr><td><div>/Admin_Panel/default/products</div></td></tr></table></div></td></tr></table></div></td></tr><tr><td style="font-weight:bold;vertical-align:top;">meta</td><td style="vertical-align:top;">:</td><td><div><table><tr><td style="font-weight:bold;vertical-align:top;">author</td><td style="vertical-align:top;">:</td><td><div>None</div></td></tr><tr><td style="font-weight:bold;vertical-align:top;">description</td><td style="vertical-align:top;">:</td><td><div>None</div></td></tr><tr><td style="font-weight:bold;vertical-align:top;">generator</td><td style="vertical-align:top;">:</td><td><div>None</div></td></tr><tr><td style="font-weight:bold;vertical-align:top;">keywords</td><td style="vertical-align:top;">:</td><td><div>None</div></td></tr></table></div></td></tr><tr><td style="font-weight:bold;vertical-align:top;">models_to_run</td><td style="vertical-align:top;">:</td><td><div><table><tr><td><div>^\\w+\\.py$</div></td></tr><tr><td><div>^default/\\w+\\.py$</div></td></tr><tr><td><div>^default/products/\\w+\\.py$</div></td></tr></table></div></td></tr><tr><td style="font-weight:bold;vertical-align:top;">postprocessing</td><td style="vertical-align:top;">:</td><td><div><table></table></div></td></tr><tr><td style="font-weight:bold;vertical-align:top;">session_client</td><td style="vertical-align:top;">:</td><td><div>127.0.0.1</div></td></tr><tr><td style="font-weight:bold;vertical-align:top;">session_cookie_compression_level</td><td style="vertical-align:top;">:</td><td><div>None</div></td></tr><tr><td style="font-weight:bold;vertical-align:top;">session_cookie_expires</td><td style="vertical-align:top;">:</td><td><div>None</div></td></tr><tr><td style="font-weight:bold;vertical-align:top;">session_data_name</td><td style="vertical-align:top;">:</td><td><div>session_data_admin_panel</div></td></tr><tr><td style="font-weight:bold;vertical-align:top;">session_file</td><td style="vertical-align:top;">:</td><td><div>None</div></td></tr><tr><td style="font-weight:bold;vertical-align:top;">session_filename</td><td style="vertical-align:top;">:</td><td><div>D:\\online-retail\\Online-Retail-Admin\\web2py\\applications\\Admin_Panel\\sessions\\127.0.0.1-f1648096-ae6a-4c5a-966f-80909b9c18dc</div></td></tr><tr><td style="font-weight:bold;vertical-align:top;">session_hash</td><td style="vertical-align:top;">:</td><td><div>c0762cbf4baf7f9af97c051e7fcb8083</div></td></tr><tr><td style="font-weight:bold;vertical-align:top;">session_id</td><td style="vertical-align:top;">:</td><td><div>127.0.0.1-f1648096-ae6a-4c5a-966f-80909b9c18dc</div></td></tr><tr><td style="font-weight:bold;vertical-align:top;">session_id_name</td><td style="vertical-align:top;">:</td><td><div>session_id_admin_panel</div></td></tr><tr><td style="font-weight:bold;vertical-align:top;">session_masterapp</td><td style="vertical-align:top;">:</td><td><div>Admin_Panel</div></td></tr><tr><td style="font-weight:bold;vertical-align:top;">session_new</td><td style="vertical-align:top;">:</td><td><div>True</div></td></tr><tr><td style="font-weight:bold;vertical-align:top;">session_storage_type</td><td style="vertical-align:top;">:</td><td><div>file</div></td></tr><tr><td style="font-weight:bold;vertical-align:top;">status</td><td style="vertical-align:top;">:</td><td><div>200</div></td></tr><tr><td style="font-weight:bold;vertical-align:top;">subtitle</td><td style="vertical-align:top;">:</td><td><div></div></td></tr><tr><td style="font-weight:bold;vertical-align:top;">title</td><td style="vertical-align:top;">:</td><td><div>Admin Panel</div></td></tr><tr><td style="font-weight:bold;vertical-align:top;">view</td><td style="vertical-align:top;">:</td><td><div>default/products.html</div></td></tr></table></div>'
tRp121
sS'locals'
p122
(dp123
S'Service'
p124
S"<class 'gluon.tools.Service'>"
p125
sS'OBJECT'
p126
S"<class 'gluon.html.OBJECT'>"
p127
sS'SQLDB'
p128
S"<class 'pydal.base.DAL'>"
p129
sg114
S'<Storage {}>'
p130
sS'LINK'
p131
S"<class 'gluon.html.LINK'>"
p132
sS'BR'
p133
S"<class 'gluon.html.BR'>"
p134
sS'local_import'
p135
S'<function <lambda>>'
p136
sS'OPTGROUP'
p137
S"<class 'gluon.html.OPTGROUP'>"
p138
sS'__package__'
p139
S'None'
p140
sS'PRE'
p141
S"<class 'gluon.html.PRE'>"
p142
sS'IS_INT_IN_RANGE'
p143
S"<class 'gluon.validators.IS_INT_IN_RANGE'>"
p144
sS'left_sidebar_enabled'
p145
S'False'
p146
sS'IS_LOWER'
p147
S"<class 'gluon.validators.IS_LOWER'>"
p148
sS'IS_STRONG'
p149
S"<class 'gluon.validators.IS_STRONG'>"
p150
sS'cache'
p151
S'<gluon.cache.Cache object>'
p152
sS'IS_IN_DB'
p153
S"<class 'gluon.validators.IS_IN_DB'>"
p154
sS'TAG'
p155
S'<gluon.html.__TAG__ object>'
p156
sS'location'
p157
S"<lazyT 'Admin Panel - Products'>"
p158
sS'SQLField'
p159
S"<class 'pydal.objects.Field'>"
p160
sS'mail'
p161
S'<gluon.tools.Mail object>'
p162
sS'BODY'
p163
S"<class 'gluon.html.BODY'>"
p164
sS'IS_DATE_IN_RANGE'
p165
S"<class 'gluon.validators.IS_DATE_IN_RANGE'>"
p166
sS'IFRAME'
p167
S"<class 'gluon.html.IFRAME'>"
p168
sS'URL'
p169
S'<function URL>'
p170
sS'__file__'
p171
S"r'D:\\online-retail\\Online-Retail-Admin\\web2py\\applications\\Admin_Panel\\views\\default/products.html'"
p172
sS'db'
p173
S'<DAL uri="mssql4:******@hotkeycc.com/devora">'
p174
sS'auth'
p175
S'<gluon.tools.Auth object>'
p176
sS'P'
S"<class 'gluon.html.P'>"
p177
sS'TFOOT'
p178
S"<class 'gluon.html.TFOOT'>"
p179
sS'XHTML'
p180
S"<class 'gluon.html.XHTML'>"
p181
sS'ON'
p182
S'True'
p183
sS'OL'
p184
S"<class 'gluon.html.OL'>"
p185
sS'TEXTAREA'
p186
S"<class 'gluon.html.TEXTAREA'>"
p187
sS'MENU'
p188
S"<class 'gluon.html.MENU'>"
p189
sS'item'
p190
S"{'email': 'b@j.com', 'first_name': '1', 'id': 1, 'last_name': '2', 'password': 'pbkdf2(1000,20,sha512)$8f9069f288d53326$7785d4943e7e06b5b78447dcbdb80850f9bfe4ea', 'registration_id': '', 'registration_key': '', 'reset_password_key': ''}"
p191
sS'IS_IMAGE'
p192
S"<class 'gluon.validators.IS_IMAGE'>"
p193
sS'EM'
p194
S"<class 'gluon.html.EM'>"
p195
sS'CODE'
p196
S"<class 'gluon.html.CODE'>"
p197
sS'HTTP'
p198
S"<class 'gluon.http.HTTP'>"
p199
sS'HR'
p200
S"<class 'gluon.html.HR'>"
p201
sS'IS_DATETIME'
p202
S"<class 'gluon.validators.IS_DATETIME'>"
p203
sS'STYLE'
p204
S"<class 'gluon.html.STYLE'>"
p205
sS'LABEL'
p206
S"<class 'gluon.html.LABEL'>"
p207
sS'CLEANUP'
p208
S"<class 'gluon.validators.CLEANUP'>"
p209
sS'plugins'
p210
S'<gluon.tools.PluginManager object>'
p211
sS'SELECT'
p212
S"<class 'gluon.html.SELECT'>"
p213
sS'CENTER'
p214
S"<class 'gluon.html.CENTER'>"
p215
sS'Auth'
p216
S"<class 'gluon.tools.Auth'>"
p217
sS'DEVELOPMENT_MENU'
p218
g183
sS'__builtins__'
p219
S"{'ArithmeticError': <type 'exceptions.ArithmeticError'>, 'AssertionError': <type 'exceptions.AssertionError'>, 'AttributeError': <type 'exceptions.AttributeError'>, 'BaseException': <type 'exceptions.BaseException'>, 'BufferError': <type 'exceptions.BufferError'>, 'BytesWarning': <type 'exceptions.BytesWarning'>, 'DeprecationWarning': <type 'exceptions.DeprecationWarning'>, 'EOFError': <type 'exceptions.EOFError'>, 'Ellipsis': Ellipsis, 'EnvironmentError': <type 'exceptions.EnvironmentError'>, ...}"
p220
sS'HTML'
p221
S"<class 'gluon.html.HTML'>"
p222
sS'SQLFORM'
p223
S"<class 'gluon.sqlhtml.SQLFORM'>"
p224
sS'LOAD'
p225
S'<function LOAD>'
p226
sS'redirect'
p227
S'<function redirect>'
p228
sS'FIELDSET'
p229
S"<class 'gluon.html.FIELDSET'>"
p230
sS'IS_EQUAL_TO'
p231
S"<class 'gluon.validators.IS_EQUAL_TO'>"
p232
sS'embed64'
p233
S'<function embed64>'
p234
sS'IS_LIST_OF'
p235
S"<class 'gluon.validators.IS_LIST_OF'>"
p236
sS'INPUT'
p237
S"<class 'gluon.html.INPUT'>"
p238
sS'EMBED'
p239
S"<class 'gluon.html.EMBED'>"
p240
sS'_'
S'<function _>'
p241
sS'myconf'
p242
S"{'forms': {'formstyle': 'bootstrap3_inline', 'se...'you@gmail.com', 'server': 'smtp.gmail.com:587'}}"
p243
sS'H2'
p244
S"<class 'gluon.html.H2'>"
p245
sS'H3'
p246
S"<class 'gluon.html.H3'>"
p247
sS'AppConfig'
p248
S'<function AppConfig>'
p249
sS'H1'
p250
S"<class 'gluon.html.H1'>"
p251
sS'H6'
p252
S"<class 'gluon.html.H6'>"
p253
sS'H4'
p254
S"<class 'gluon.html.H4'>"
p255
sS'H5'
p256
S"<class 'gluon.html.H5'>"
p257
sS'UL'
p258
S"<class 'gluon.html.UL'>"
p259
sS'IS_UPPER'
p260
S"<class 'gluon.validators.IS_UPPER'>"
p261
sS'xmlescape'
p262
S'<function xmlescape>'
p263
sS'IS_TIME'
p264
S"<class 'gluon.validators.IS_TIME'>"
p265
sS'OPTION'
p266
S"<class 'gluon.html.OPTION'>"
p267
sS'TITLE'
p268
S"<class 'gluon.html.TITLE'>"
p269
sS'CRYPT'
p270
S"<class 'gluon.validators.CRYPT'>"
p271
sS'IS_EMPTY_OR'
p272
S"<class 'gluon.validators.IS_EMPTY_OR'>"
p273
sS'MARKMIN'
p274
S"<class 'gluon.html.MARKMIN'>"
p275
sS'__name__'
p276
S"'__restricted__'"
p277
sS'STRONG'
p278
S"<class 'gluon.html.STRONG'>"
p279
sS'COL'
p280
S"<class 'gluon.html.COL'>"
p281
sS'service'
p282
S'<gluon.tools.Service object>'
p283
sS'SCRIPT'
p284
S"<class 'gluon.html.SCRIPT'>"
p285
sS'TABLE'
p286
S"<class 'gluon.html.TABLE'>"
p287
sS'IS_IPV4'
p288
S"<class 'gluon.validators.IS_IPV4'>"
p289
sS'IS_LENGTH'
p290
S"<class 'gluon.validators.IS_LENGTH'>"
p291
sS'IS_IPV6'
p292
S"<class 'gluon.validators.IS_IPV6'>"
p293
sS'XML'
p294
S"<class 'gluon.html.XML'>"
p295
sS'B'
S"<class 'gluon.html.B'>"
p296
sS'IMG'
p297
S"<class 'gluon.html.IMG'>"
p298
sS'SQLTABLE'
p299
S"<class 'gluon.sqlhtml.SQLTABLE'>"
p300
sS'IS_MATCH'
p301
S"<class 'gluon.validators.IS_MATCH'>"
p302
sS'IS_ALPHANUMERIC'
p303
S"<class 'gluon.validators.IS_ALPHANUMERIC'>"
p304
sS'SPAN'
p305
S"<class 'gluon.html.SPAN'>"
p306
sS'IS_JSON'
p307
S"<class 'gluon.validators.IS_JSON'>"
p308
sS'IS_IPADDRESS'
p309
S"<class 'gluon.validators.IS_IPADDRESS'>"
p310
sS'IS_SLUG'
p311
S"<class 'gluon.validators.IS_SLUG'>"
p312
sS'BEAUTIFY'
p313
S"<class 'gluon.html.BEAUTIFY'>"
p314
sS'META'
p315
S"<class 'gluon.html.META'>"
p316
sS'BUTTON'
p317
S"<class 'gluon.html.BUTTON'>"
p318
sS'IS_DATE'
p319
S"<class 'gluon.validators.IS_DATE'>"
p320
sS'IS_EMAIL'
p321
S"<class 'gluon.validators.IS_EMAIL'>"
p322
sS'IS_NOT_EMPTY'
p323
S"<class 'gluon.validators.IS_NOT_EMPTY'>"
p324
sS'IS_FLOAT_IN_RANGE'
p325
S"<class 'gluon.validators.IS_FLOAT_IN_RANGE'>"
p326
sS'TBODY'
p327
S"<class 'gluon.html.TBODY'>"
p328
sS'CAT'
p329
S"<class 'gluon.html.CAT'>"
p330
sS'Field'
p331
S"<class 'pydal.objects.Field'>"
p332
sS'IS_LIST_OF_EMAILS'
p333
S"<class 'gluon.validators.IS_LIST_OF_EMAILS'>"
p334
sS'DIV'
p335
S"<class 'gluon.html.DIV'>"
p336
sS'LEGEND'
p337
S"<class 'gluon.html.LEGEND'>"
p338
sS'COLGROUP'
p339
S"<class 'gluon.html.COLGROUP'>"
p340
sS'DAL'
p341
S"<class 'pydal.base.DAL'>"
p342
sS'ASSIGNJS'
p343
S'<function ASSIGNJS>'
p344
sS'TR'
p345
S"<class 'gluon.html.TR'>"
p346
sS'LI'
p347
S"<class 'gluon.html.LI'>"
p348
sS'right_sidebar_enabled'
p349
g146
sS'TH'
p350
S"<class 'gluon.html.TH'>"
p351
sS'test'
p352
S"[{'email': 'b@j.com', 'first_name': '1', 'id': 1, 'last_name': '2', 'password': 'pbkdf2(1000,20,sha512)$8f9069f288d53326$7785d4943e7e06b5b78447dcbdb80850f9bfe4ea', 'registration_id': '', 'registration_key': '', 'reset_password_key': ''}, {'email': 'vshahbaz@ucsc.edu', 'first_name': 'victor', 'id': 2, 'last_name': 'shahbazian', 'password': 'pbkdf2(1000,20,sha512)$8b33d8430b2a1084$59da95b4f24c470ac588e55b9517b4cb5cbe472a', 'registration_id': '', 'registration_key': '', 'reset_password_key': ''}, {'email': 'vd@gmail.com', 'first_name': 'asdfdff', 'id': 3, 'last_name': 'eueueuejj', 'password': 'pbkdf2(1000,20,sha512)$a751b65f5b59086f$0fee7cbadae4771361d3e55b247d77a4836c4ace', 'registration_id': '', 'registration_key': '', 'reset_password_key': ''}]"
p353
sS'TD'
p354
S"<class 'gluon.html.TD'>"
p355
sS'PluginManager'
p356
S"<class 'gluon.tools.PluginManager'>"
p357
sS'IS_URL'
p358
S"<class 'gluon.validators.IS_URL'>"
p359
sS'A'
S"<class 'gluon.html.A'>"
p360
sS'HEAD'
p361
S"<class 'gluon.html.HEAD'>"
p362
sS'IS_DATETIME_IN_RANGE'
p363
S"<class 'gluon.validators.IS_DATETIME_IN_RANGE'>"
p364
sS'FORM'
p365
S"<class 'gluon.html.FORM'>"
p366
sS'I'
S"<class 'gluon.html.I'>"
p367
sS'IS_NOT_IN_DB'
p368
S"<class 'gluon.validators.IS_NOT_IN_DB'>"
p369
sg120
S"<Storage {'body': <cStringIO.StringO object at 0...at 0x05C5D6B0>, 'view': 'default/products.html'}>"
p370
sS'THEAD'
p371
S"<class 'gluon.html.THEAD'>"
p372
sS'ANY_OF'
p373
S"<class 'gluon.validators.ANY_OF'>"
p374
sS'IS_NULL_OR'
p375
S"<class 'gluon.validators.IS_EMPTY_OR'>"
p376
sg55
S"<Storage {'_vars': None, 'function': 'products',...ail-Admin\\\\web2py\\\\applications\\\\Admin_Panel\\\\'}>"
p377
sS'IS_EXPR'
p378
S"<class 'gluon.validators.IS_EXPR'>"
p379
sS'T'
S'<gluon.languages.translator object>'
p380
sS'IS_IN_SET'
p381
S"<class 'gluon.validators.IS_IN_SET'>"
p382
sS'IS_UPLOAD_FILENAME'
p383
S"<class 'gluon.validators.IS_UPLOAD_FILENAME'>"
p384
sS'TT'
p385
S"<class 'gluon.html.TT'>"
p386
sS'IS_DECIMAL_IN_RANGE'
p387
S"<class 'gluon.validators.IS_DECIMAL_IN_RANGE'>"
p388
sssS'traceback'
p389
S'Traceback (most recent call last):\n  File "D:\\online-retail\\Online-Retail-Admin\\web2py\\gluon\\restricted.py", line 227, in restricted\n    exec ccode in environment\n  File "D:\\online-retail\\Online-Retail-Admin\\web2py\\applications\\Admin_Panel\\views\\default/products.html", line 67, in <module>\nKeyError: 3\n'
p390
s.