(dp1
S'output'
p2
S"<type 'exceptions.NameError'> name 'send' is not defined"
p3
sS'layer'
p4
S'/Users/bereket/Documents/CMPS115/web2py/applications/admin/views/default/site.html'
p5
sS'code'
p6
S'response.write(\'<!DOCTYPE html>\\n<html xmlns="http://www.w3.org/1999/xhtml" xml:lang="en" lang="en">\\n\\n    <head>\\n        <meta http-equiv="content-type" content="text/html; charset=utf-8" />\\n        <meta http-equiv="P3P" content="CP=\\\\"IDC DSP COR CURa ADMa OUR IND PHY ONL COM STA\\\\"" />\\n        <meta name="viewport" content="width=device-width, initial-scale=1.0">\\n        <title>\', escape=False)\nresponse.write(response.title or URL())\nresponse.write(\'</title>\\n        \', escape=False)\nresponse.files.append(URL(\'static\',\'css/bootstrap.min.css\'))\nresponse.files.append(URL(\'static\',\'css/bootstrap_essentials.css\'))\nresponse.files.append(URL(\'static\',\'css/bootstrap-responsive.min.css\'))\nresponse.write(\'\\n        \', escape=False)\nresponse.write(\'<script type="text/javascript"><!--\\n    // These variables are used by the web2py_ajax_init function in web2py_ajax.js (which is loaded below).\\n    var w2p_ajax_confirm_message = "\', escape=False)\nresponse.write(T(\'Are you sure you want to delete this object?\'))\nresponse.write(\'";\\n    var w2p_ajax_date_format = "\', escape=False)\nresponse.write(T(\'%Y-%m-%d\'))\nresponse.write(\'";\\n    var w2p_ajax_datetime_format = "\', escape=False)\nresponse.write(T(\'%Y-%m-%d %H:%M:%S\'))\nresponse.write(\'";\\n    var w2p_ajax_disable_with_message = "\', escape=False)\nresponse.write(T(\'Working...\'))\nresponse.write(\'";\\n    var ajax_error_500 = \\\'\', escape=False)\nresponse.write(T.M(\'An error occured, please [[reload %s]] the page\') % URL(args=request.args, vars=request.get_vars))\nresponse.write("\'\\n    //--></script>\\n", escape=False)\nresponse.files.insert(0,URL(\'static\',\'js/jquery.js\'))\nresponse.files.insert(1,URL(\'static\',\'css/calendar.css\'))\nresponse.files.insert(2,URL(\'static\',\'js/calendar.js\'))\nresponse.files.insert(3,URL(\'static\',\'js/web2py.js\'))\nresponse.include_meta()\nresponse.include_files()\nresponse.write(\'\\n\', escape=False)\nresponse.write(\'\\n    </head>\\n\\n    <body class="\', escape=False)\nresponse.write(T(\'direction: ltr\') == \'direction: rtl\' and \'RTLbody\' or \'\')\nresponse.write(\' \', escape=False)\nresponse.write(\'site\', escape=False)\nresponse.write(\'">\\n\\n   <div class="form">\\n  <form action="\', escape=False)\nresponse.write(URL(r=request))\nresponse.write(\'" method="post">\\n    <div><input type="hidden" name="send" value="\', escape=False)\nresponse.write(send)\nresponse.write(\'"/></div>\\n    <table>\\n        <h1>Online-Retail-Admin</h1>\\n        <br>\\n        <br>\\n      <tr><td>\', escape=False)\nresponse.write(T(\'Administrator Password:\'))\nresponse.write(\'</td><td><input type="password" name="password" id="password"/></td></tr>\\n      <tr><td></td><td><button name="login">\', escape=False)\nresponse.write(T(\'Login\'))\nresponse.write(\'</button></td></tr>\\n    </table>\\n    <input type="hidden" name="is_mobile" value="true"/>\\n  </form>\\n</div>\\n\\n    </body>\\n</html>\\n\', escape=False)'
p7
sS'snapshot'
p8
(dp9
S'exception'
p10
(dp11
S'__hash__'
p12
S"<method-wrapper '__hash__' of exceptions.NameError object>"
p13
sS'__setattr__'
p14
S"<method-wrapper '__setattr__' of exceptions.NameError object>"
p15
sS'__reduce_ex__'
p16
S'<built-in method __reduce_ex__ of exceptions.NameError object>'
p17
sS'__getslice__'
p18
S"<method-wrapper '__getslice__' of exceptions.NameError object>"
p19
sS'__getitem__'
p20
S"<method-wrapper '__getitem__' of exceptions.NameError object>"
p21
sS'__setstate__'
p22
S'<built-in method __setstate__ of exceptions.NameError object>'
p23
sS'args'
p24
S'("name \'send\' is not defined",)'
p25
sS'__reduce__'
p26
S'<built-in method __reduce__ of exceptions.NameError object>'
p27
sS'__str__'
p28
S"<method-wrapper '__str__' of exceptions.NameError object>"
p29
sS'__format__'
p30
S'<built-in method __format__ of exceptions.NameError object>'
p31
sS'__getattribute__'
p32
S"<method-wrapper '__getattribute__' of exceptions.NameError object>"
p33
sS'__class__'
p34
S"<type 'exceptions.NameError'>"
p35
sS'__unicode__'
p36
S'<built-in method __unicode__ of exceptions.NameError object>'
p37
sS'__delattr__'
p38
S"<method-wrapper '__delattr__' of exceptions.NameError object>"
p39
sS'__subclasshook__'
p40
S'<built-in method __subclasshook__ of type object>'
p41
sS'__repr__'
p42
S"<method-wrapper '__repr__' of exceptions.NameError object>"
p43
sS'__dict__'
p44
S'{}'
p45
sS'__sizeof__'
p46
S'<built-in method __sizeof__ of exceptions.NameError object>'
p47
sS'__doc__'
p48
S"'Name not found globally.'"
p49
sS'__init__'
p50
S"<method-wrapper '__init__' of exceptions.NameError object>"
p51
sS'__new__'
p52
S'<built-in method __new__ of type object>'
p53
ssS'evalue'
p54
S"name 'send' is not defined"
p55
sS'request'
p56
cgluon.html
XML_unpickle
p57
(S's%U\x00\x00<div><table><tr><td style="font-weight:bold;vertical-align:top;">ajax</td><td style="vertical-align:top;">:</td><td><div>False</div></td></tr><tr><td style="font-weight:bold;vertical-align:top;">application</td><td style="vertical-align:top;">:</td><td><div>admin</div></td></tr><tr><td style="font-weight:bold;vertical-align:top;">args</td><td style="vertical-align:top;">:</td><td><div><table></table></div></td></tr><tr><td style="font-weight:bold;vertical-align:top;">cid</td><td style="vertical-align:top;">:</td><td><div>None</div></td></tr><tr><td style="font-weight:bold;vertical-align:top;">client</td><td style="vertical-align:top;">:</td><td><div>127.0.0.1</div></td></tr><tr><td style="font-weight:bold;vertical-align:top;">controller</td><td style="vertical-align:top;">:</td><td><div>default</div></td></tr><tr><td style="font-weight:bold;vertical-align:top;">cookies</td><td style="vertical-align:top;">:</td><td><div><table><tr><td style="font-weight:bold;vertical-align:top;">session_id_admin</td><td style="vertical-align:top;">:</td><td><div>127.0.0.1-5a73ffc3-c198-4491-a368-9178b7afe0b1<table><tr><td style="font-weight:bold;vertical-align:top;">comment</td><td style="vertical-align:top;">:</td><td><div></div></td></tr><tr><td style="font-weight:bold;vertical-align:top;">domain</td><td style="vertical-align:top;">:</td><td><div></div></td></tr><tr><td style="font-weight:bold;vertical-align:top;">expires</td><td style="vertical-align:top;">:</td><td><div></div></td></tr><tr><td style="font-weight:bold;vertical-align:top;">httponly</td><td style="vertical-align:top;">:</td><td><div></div></td></tr><tr><td style="font-weight:bold;vertical-align:top;">max-age</td><td style="vertical-align:top;">:</td><td><div></div></td></tr><tr><td style="font-weight:bold;vertical-align:top;">path</td><td style="vertical-align:top;">:</td><td><div></div></td></tr><tr><td style="font-weight:bold;vertical-align:top;">secure</td><td style="vertical-align:top;">:</td><td><div></div></td></tr><tr><td style="font-weight:bold;vertical-align:top;">version</td><td style="vertical-align:top;">:</td><td><div></div></td></tr></table></div></td></tr><tr><td style="font-weight:bold;vertical-align:top;">session_id_welcome</td><td style="vertical-align:top;">:</td><td><div>127.0.0.1-ea07e068-f6d6-408e-9782-51f4d128eeb2<table><tr><td style="font-weight:bold;vertical-align:top;">comment</td><td style="vertical-align:top;">:</td><td><div></div></td></tr><tr><td style="font-weight:bold;vertical-align:top;">domain</td><td style="vertical-align:top;">:</td><td><div></div></td></tr><tr><td style="font-weight:bold;vertical-align:top;">expires</td><td style="vertical-align:top;">:</td><td><div></div></td></tr><tr><td style="font-weight:bold;vertical-align:top;">httponly</td><td style="vertical-align:top;">:</td><td><div></div></td></tr><tr><td style="font-weight:bold;vertical-align:top;">max-age</td><td style="vertical-align:top;">:</td><td><div></div></td></tr><tr><td style="font-weight:bold;vertical-align:top;">path</td><td style="vertical-align:top;">:</td><td><div></div></td></tr><tr><td style="font-weight:bold;vertical-align:top;">secure</td><td style="vertical-align:top;">:</td><td><div></div></td></tr><tr><td style="font-weight:bold;vertical-align:top;">version</td><td style="vertical-align:top;">:</td><td><div></div></td></tr></table></div></td></tr></table></div></td></tr><tr><td style="font-weight:bold;vertical-align:top;">env</td><td style="vertical-align:top;">:</td><td><div><table><tr><td style="font-weight:bold;vertical-align:top;">HTTP_ACCEPT</td><td style="vertical-align:top;">:</td><td><div>text/html,application/xhtml+xml,application/xml;q=0.9,*/*;q=0.8</div></td></tr><tr><td style="font-weight:bold;vertical-align:top;">HTTP_ACCEPT_ENCODING</td><td style="vertical-align:top;">:</td><td><div>gzip, deflate</div></td></tr><tr><td style="font-weight:bold;vertical-align:top;">HTTP_ACCEPT_LANGUAGE</td><td style="vertical-align:top;">:</td><td><div>en-us</div></td></tr><tr><td style="font-weight:bold;vertical-align:top;">HTTP_CONNECTION</td><td style="vertical-align:top;">:</td><td><div>keep-alive</div></td></tr><tr><td style="font-weight:bold;vertical-align:top;">HTTP_COOKIE</td><td style="vertical-align:top;">:</td><td><div>session_id_admin=127.0.0.1-5a73ffc3-c198-4491-a368-9178b7afe0b1; session_id_welcome=127.0.0.1-ea07e068-f6d6-408e-9782-51f4d128eeb2</div></td></tr><tr><td style="font-weight:bold;vertical-align:top;">HTTP_HOST</td><td style="vertical-align:top;">:</td><td><div>127.0.0.1:8000</div></td></tr><tr><td style="font-weight:bold;vertical-align:top;">HTTP_UPGRADE_INSECURE_REQUESTS</td><td style="vertical-align:top;">:</td><td><div>1</div></td></tr><tr><td style="font-weight:bold;vertical-align:top;">HTTP_USER_AGENT</td><td style="vertical-align:top;">:</td><td><div>Mozilla/5.0 (Macintosh; Intel Mac OS X 10_10_5) AppleWebKit/602.1.50 (KHTML, like Gecko) Version/10.0 Safari/602.1.50</div></td></tr><tr><td style="font-weight:bold;vertical-align:top;">PATH_INFO</td><td style="vertical-align:top;">:</td><td><div>/admin/default/site</div></td></tr><tr><td style="font-weight:bold;vertical-align:top;">QUERY_STRING</td><td style="vertical-align:top;">:</td><td><div></div></td></tr><tr><td style="font-weight:bold;vertical-align:top;">REMOTE_ADDR</td><td style="vertical-align:top;">:</td><td><div>127.0.0.1</div></td></tr><tr><td style="font-weight:bold;vertical-align:top;">REMOTE_PORT</td><td style="vertical-align:top;">:</td><td><div>50981</div></td></tr><tr><td style="font-weight:bold;vertical-align:top;">REQUEST_METHOD</td><td style="vertical-align:top;">:</td><td><div>GET</div></td></tr><tr><td style="font-weight:bold;vertical-align:top;">SCRIPT_NAME</td><td style="vertical-align:top;">:</td><td><div></div></td></tr><tr><td style="font-weight:bold;vertical-align:top;">SERVER_NAME</td><td style="vertical-align:top;">:</td><td><div>eduroam-169-233-204-137.ucsc.edu</div></td></tr><tr><td style="font-weight:bold;vertical-align:top;">SERVER_PORT</td><td style="vertical-align:top;">:</td><td><div>8000</div></td></tr><tr><td style="font-weight:bold;vertical-align:top;">SERVER_PROTOCOL</td><td style="vertical-align:top;">:</td><td><div>HTTP/1.1</div></td></tr><tr><td style="font-weight:bold;vertical-align:top;">SERVER_SOFTWARE</td><td style="vertical-align:top;">:</td><td><div>Rocket 1.2.6</div></td></tr><tr><td style="font-weight:bold;vertical-align:top;">app_folders</td><td style="vertical-align:top;">:</td><td><div>set([&#x27;/Users/bereket/Documents/CMPS115/web2py/applications/admin/&#x27;, &#x27;/Users/bereket/Documents/CMPS115/web2py/applications/welcome/&#x27;])</div></td></tr><tr><td style="font-weight:bold;vertical-align:top;">applications_parent</td><td style="vertical-align:top;">:</td><td><div>/Users/bereket/Documents/CMPS115/web2py</div></td></tr><tr><td style="font-weight:bold;vertical-align:top;">cmd_args</td><td style="vertical-align:top;">:</td><td><div><table></table></div></td></tr><tr><td style="font-weight:bold;vertical-align:top;">cmd_options</td><td style="vertical-align:top;">:</td><td><div>&lt;Values at 0x109d949e0: {&#x27;verbose&#x27;: False, &#x27;ip&#x27;: &#x27;127.0.0.1&#x27;, &#x27;debuglevel&#x27;: 30, &#x27;with_scheduler&#x27;: False, &#x27;shutdown_timeout&#x27;: 5, &#x27;taskbar&#x27;: False, &#x27;with_coverage&#x27;: False, &#x27;pid_filename&#x27;: &#x27;httpserver.pid&#x27;, &#x27;maxthreads&#x27;: None, &#x27;softcron&#x27;: False, &#x27;server_name&#x27;: &#x27;eduroam-169-233-204-137.ucsc.edu&#x27;, &#x27;bpython&#x27;: False, &#x27;nogui&#x27;: False, &#x27;port&#x27;: 8000, &#x27;print_errors&#x27;: False, &#x27;extcron&#x27;: False, &#x27;runcron&#x27;: False, &#x27;run_system_tests&#x27;: False, &#x27;test&#x27;: None, &#x27;folder&#x27;: &#x27;/Users/bereket/Documents/CMPS115/web2py&#x27;, &#x27;config&#x27;: &#x27;&#x27;, &#x27;minthreads&#x27;: None, &#x27;shell&#x27;: None, &#x27;run&#x27;: &#x27;&#x27;, &#x27;log_filename&#x27;: &#x27;httpserver.log&#x27;, &#x27;profiler_dir&#x27;: None, &#x27;args&#x27;: [&#x27;&#x27;], &#x27;socket_timeout&#x27;: 5, &#x27;ssl_ca_certificate&#x27;: None, &#x27;scheduler&#x27;: None, &#x27;interfaces&#x27;: None, &#x27;ssl_private_key&#x27;: &#x27;&#x27;, &#x27;gae&#x27;: None, &#x27;password&#x27;: &#x27;******&#x27;, &#x27;request_queue_size&#x27;: 5, &#x27;ssl_certificate&#x27;: &#x27;&#x27;, &#x27;cronjob&#x27;: False, &#x27;numthreads&#x27;: None, &#x27;quiet&#x27;: False, &#x27;import_models&#x27;: False, &#x27;timeout&#x27;: 10, &#x27;plain&#x27;: False, &#x27;nobanner&#x27;: False}&gt;</div></td></tr><tr><td style="font-weight:bold;vertical-align:top;">db_sessions</td><td style="vertical-align:top;">:</td><td><div>set([])</div></td></tr><tr><td style="font-weight:bold;vertical-align:top;">debugging</td><td style="vertical-align:top;">:</td><td><div>False</div></td></tr><tr><td style="font-weight:bold;vertical-align:top;">gluon_parent</td><td style="vertical-align:top;">:</td><td><div>/Users/bereket/Documents/CMPS115/web2py</div></td></tr><tr><td style="font-weight:bold;vertical-align:top;">http_accept</td><td style="vertical-align:top;">:</td><td><div>text/html,application/xhtml+xml,application/xml;q=0.9,*/*;q=0.8</div></td></tr><tr><td style="font-weight:bold;vertical-align:top;">http_accept_encoding</td><td style="vertical-align:top;">:</td><td><div>gzip, deflate</div></td></tr><tr><td style="font-weight:bold;vertical-align:top;">http_accept_language</td><td style="vertical-align:top;">:</td><td><div>en-us</div></td></tr><tr><td style="font-weight:bold;vertical-align:top;">http_connection</td><td style="vertical-align:top;">:</td><td><div>keep-alive</div></td></tr><tr><td style="font-weight:bold;vertical-align:top;">http_cookie</td><td style="vertical-align:top;">:</td><td><div>session_id_admin=127.0.0.1-5a73ffc3-c198-4491-a368-9178b7afe0b1; session_id_welcome=127.0.0.1-ea07e068-f6d6-408e-9782-51f4d128eeb2</div></td></tr><tr><td style="font-weight:bold;vertical-align:top;">http_host</td><td style="vertical-align:top;">:</td><td><div>127.0.0.1:8000</div></td></tr><tr><td style="font-weight:bold;vertical-align:top;">http_upgrade_insecure_requests</td><td style="vertical-align:top;">:</td><td><div>1</div></td></tr><tr><td style="font-weight:bold;vertical-align:top;">http_user_agent</td><td style="vertical-align:top;">:</td><td><div>Mozilla/5.0 (Macintosh; Intel Mac OS X 10_10_5) AppleWebKit/602.1.50 (KHTML, like Gecko) Version/10.0 Safari/602.1.50</div></td></tr><tr><td style="font-weight:bold;vertical-align:top;">is_jython</td><td style="vertical-align:top;">:</td><td><div>False</div></td></tr><tr><td style="font-weight:bold;vertical-align:top;">is_pypy</td><td style="vertical-align:top;">:</td><td><div>False</div></td></tr><tr><td style="font-weight:bold;vertical-align:top;">is_source</td><td style="vertical-align:top;">:</td><td><div>True</div></td></tr><tr><td style="font-weight:bold;vertical-align:top;">local_hosts</td><td style="vertical-align:top;">:</td><td><div><table><tr><td><div>::1</div></td></tr><tr><td><div>169.233.204.137</div></td></tr><tr><td><div>::ffff:127.0.0.1</div></td></tr><tr><td><div>127.0.0.1</div></td></tr><tr><td><div>eduroam-169-233-204-137.ucsc.edu</div></td></tr></table></div></td></tr><tr><td style="font-weight:bold;vertical-align:top;">path_info</td><td style="vertical-align:top;">:</td><td><div>/admin/default/site</div></td></tr><tr><td style="font-weight:bold;vertical-align:top;">query_string</td><td style="vertical-align:top;">:</td><td><div></div></td></tr><tr><td style="font-weight:bold;vertical-align:top;">remote_addr</td><td style="vertical-align:top;">:</td><td><div>127.0.0.1</div></td></tr><tr><td style="font-weight:bold;vertical-align:top;">remote_port</td><td style="vertical-align:top;">:</td><td><div>50981</div></td></tr><tr><td style="font-weight:bold;vertical-align:top;">request_method</td><td style="vertical-align:top;">:</td><td><div>GET</div></td></tr><tr><td style="font-weight:bold;vertical-align:top;">request_uri</td><td style="vertical-align:top;">:</td><td><div>/admin/default/site</div></td></tr><tr><td style="font-weight:bold;vertical-align:top;">script_name</td><td style="vertical-align:top;">:</td><td><div></div></td></tr><tr><td style="font-weight:bold;vertical-align:top;">server_name</td><td style="vertical-align:top;">:</td><td><div>eduroam-169-233-204-137.ucsc.edu</div></td></tr><tr><td style="font-weight:bold;vertical-align:top;">server_port</td><td style="vertical-align:top;">:</td><td><div>8000</div></td></tr><tr><td style="font-weight:bold;vertical-align:top;">server_protocol</td><td style="vertical-align:top;">:</td><td><div>HTTP/1.1</div></td></tr><tr><td style="font-weight:bold;vertical-align:top;">server_software</td><td style="vertical-align:top;">:</td><td><div>Rocket 1.2.6</div></td></tr><tr><td style="font-weight:bold;vertical-align:top;">web2py_path</td><td style="vertical-align:top;">:</td><td><div>/Users/bereket/Documents/CMPS115/web2py</div></td></tr><tr><td style="font-weight:bold;vertical-align:top;">web2py_version</td><td style="vertical-align:top;">:</td><td><div>2.14.6-stable+timestamp.2016.05.10.00.21.47</div></td></tr><tr><td style="font-weight:bold;vertical-align:top;">wsgi.errors</td><td style="vertical-align:top;">:</td><td><div>&lt;open file &#x27;&lt;stderr&gt;&#x27;, mode &#x27;w&#x27; at 0x108d811e0&gt;</div></td></tr><tr><td style="font-weight:bold;vertical-align:top;">wsgi.file_wrapper</td><td style="vertical-align:top;">:</td><td><div>&lt;class wsgiref.util.FileWrapper at 0x109d34600&gt;</div></td></tr><tr><td style="font-weight:bold;vertical-align:top;">wsgi.input</td><td style="vertical-align:top;">:</td><td><div>&lt;socket._fileobject object at 0x1117b4ad0&gt;</div></td></tr><tr><td style="font-weight:bold;vertical-align:top;">wsgi.multiprocess</td><td style="vertical-align:top;">:</td><td><div>False</div></td></tr><tr><td style="font-weight:bold;vertical-align:top;">wsgi.multithread</td><td style="vertical-align:top;">:</td><td><div>True</div></td></tr><tr><td style="font-weight:bold;vertical-align:top;">wsgi.run_once</td><td style="vertical-align:top;">:</td><td><div>False</div></td></tr><tr><td style="font-weight:bold;vertical-align:top;">wsgi.url_scheme</td><td style="vertical-align:top;">:</td><td><div>http</div></td></tr><tr><td style="font-weight:bold;vertical-align:top;">wsgi.version</td><td style="vertical-align:top;">:</td><td><div><table><tr><td><div>1</div></td></tr><tr><td><div>0</div></td></tr></table></div></td></tr><tr><td style="font-weight:bold;vertical-align:top;">wsgi_errors</td><td style="vertical-align:top;">:</td><td><div>&lt;open file &#x27;&lt;stderr&gt;&#x27;, mode &#x27;w&#x27; at 0x108d811e0&gt;</div></td></tr><tr><td style="font-weight:bold;vertical-align:top;">wsgi_file_wrapper</td><td style="vertical-align:top;">:</td><td><div>&lt;class wsgiref.util.FileWrapper at 0x109d34600&gt;</div></td></tr><tr><td style="font-weight:bold;vertical-align:top;">wsgi_input</td><td style="vertical-align:top;">:</td><td><div>&lt;socket._fileobject object at 0x1117b4ad0&gt;</div></td></tr><tr><td style="font-weight:bold;vertical-align:top;">wsgi_multiprocess</td><td style="vertical-align:top;">:</td><td><div>False</div></td></tr><tr><td style="font-weight:bold;vertical-align:top;">wsgi_multithread</td><td style="vertical-align:top;">:</td><td><div>True</div></td></tr><tr><td style="font-weight:bold;vertical-align:top;">wsgi_run_once</td><td style="vertical-align:top;">:</td><td><div>False</div></td></tr><tr><td style="font-weight:bold;vertical-align:top;">wsgi_url_scheme</td><td style="vertical-align:top;">:</td><td><div>http</div></td></tr><tr><td style="font-weight:bold;vertical-align:top;">wsgi_version</td><td style="vertical-align:top;">:</td><td><div><table><tr><td><div>1</div></td></tr><tr><td><div>0</div></td></tr></table></div></td></tr></table></div></td></tr><tr><td style="font-weight:bold;vertical-align:top;">extension</td><td style="vertical-align:top;">:</td><td><div>html</div></td></tr><tr><td style="font-weight:bold;vertical-align:top;">folder</td><td style="vertical-align:top;">:</td><td><div>/Users/bereket/Documents/CMPS115/web2py/applications/admin/</div></td></tr><tr><td style="font-weight:bold;vertical-align:top;">function</td><td style="vertical-align:top;">:</td><td><div>site</div></td></tr><tr><td style="font-weight:bold;vertical-align:top;">global_settings</td><td style="vertical-align:top;">:</td><td><div><table><tr><td style="font-weight:bold;vertical-align:top;">app_folders</td><td style="vertical-align:top;">:</td><td><div>set([&#x27;/Users/bereket/Documents/CMPS115/web2py/applications/admin/&#x27;, &#x27;/Users/bereket/Documents/CMPS115/web2py/applications/welcome/&#x27;])</div></td></tr><tr><td style="font-weight:bold;vertical-align:top;">applications_parent</td><td style="vertical-align:top;">:</td><td><div>/Users/bereket/Documents/CMPS115/web2py</div></td></tr><tr><td style="font-weight:bold;vertical-align:top;">cmd_args</td><td style="vertical-align:top;">:</td><td><div><table></table></div></td></tr><tr><td style="font-weight:bold;vertical-align:top;">cmd_options</td><td style="vertical-align:top;">:</td><td><div>&lt;Values at 0x109d949e0: {&#x27;verbose&#x27;: False, &#x27;ip&#x27;: &#x27;127.0.0.1&#x27;, &#x27;debuglevel&#x27;: 30, &#x27;with_scheduler&#x27;: False, &#x27;shutdown_timeout&#x27;: 5, &#x27;taskbar&#x27;: False, &#x27;with_coverage&#x27;: False, &#x27;pid_filename&#x27;: &#x27;httpserver.pid&#x27;, &#x27;maxthreads&#x27;: None, &#x27;softcron&#x27;: False, &#x27;server_name&#x27;: &#x27;eduroam-169-233-204-137.ucsc.edu&#x27;, &#x27;bpython&#x27;: False, &#x27;nogui&#x27;: False, &#x27;port&#x27;: 8000, &#x27;print_errors&#x27;: False, &#x27;extcron&#x27;: False, &#x27;runcron&#x27;: False, &#x27;run_system_tests&#x27;: False, &#x27;test&#x27;: None, &#x27;folder&#x27;: &#x27;/Users/bereket/Documents/CMPS115/web2py&#x27;, &#x27;config&#x27;: &#x27;&#x27;, &#x27;minthreads&#x27;: None, &#x27;shell&#x27;: None, &#x27;run&#x27;: &#x27;&#x27;, &#x27;log_filename&#x27;: &#x27;httpserver.log&#x27;, &#x27;profiler_dir&#x27;: None, &#x27;args&#x27;: [&#x27;&#x27;], &#x27;socket_timeout&#x27;: 5, &#x27;ssl_ca_certificate&#x27;: None, &#x27;scheduler&#x27;: None, &#x27;interfaces&#x27;: None, &#x27;ssl_private_key&#x27;: &#x27;&#x27;, &#x27;gae&#x27;: None, &#x27;password&#x27;: &#x27;******&#x27;, &#x27;request_queue_size&#x27;: 5, &#x27;ssl_certificate&#x27;: &#x27;&#x27;, &#x27;cronjob&#x27;: False, &#x27;numthreads&#x27;: None, &#x27;quiet&#x27;: False, &#x27;import_models&#x27;: False, &#x27;timeout&#x27;: 10, &#x27;plain&#x27;: False, &#x27;nobanner&#x27;: False}&gt;</div></td></tr><tr><td style="font-weight:bold;vertical-align:top;">db_sessions</td><td style="vertical-align:top;">:</td><td><div>set([])</div></td></tr><tr><td style="font-weight:bold;vertical-align:top;">debugging</td><td style="vertical-align:top;">:</td><td><div>False</div></td></tr><tr><td style="font-weight:bold;vertical-align:top;">gluon_parent</td><td style="vertical-align:top;">:</td><td><div>/Users/bereket/Documents/CMPS115/web2py</div></td></tr><tr><td style="font-weight:bold;vertical-align:top;">is_jython</td><td style="vertical-align:top;">:</td><td><div>False</div></td></tr><tr><td style="font-weight:bold;vertical-align:top;">is_pypy</td><td style="vertical-align:top;">:</td><td><div>False</div></td></tr><tr><td style="font-weight:bold;vertical-align:top;">is_source</td><td style="vertical-align:top;">:</td><td><div>True</div></td></tr><tr><td style="font-weight:bold;vertical-align:top;">local_hosts</td><td style="vertical-align:top;">:</td><td><div><table><tr><td><div>::1</div></td></tr><tr><td><div>169.233.204.137</div></td></tr><tr><td><div>::ffff:127.0.0.1</div></td></tr><tr><td><div>127.0.0.1</div></td></tr><tr><td><div>eduroam-169-233-204-137.ucsc.edu</div></td></tr></table></div></td></tr><tr><td style="font-weight:bold;vertical-align:top;">web2py_version</td><td style="vertical-align:top;">:</td><td><div>2.14.6-stable+timestamp.2016.05.10.00.21.47</div></td></tr></table></div></td></tr><tr><td style="font-weight:bold;vertical-align:top;">is_https</td><td style="vertical-align:top;">:</td><td><div>False</div></td></tr><tr><td style="font-weight:bold;vertical-align:top;">is_local</td><td style="vertical-align:top;">:</td><td><div>True</div></td></tr><tr><td style="font-weight:bold;vertical-align:top;">is_restful</td><td style="vertical-align:top;">:</td><td><div>False</div></td></tr><tr><td style="font-weight:bold;vertical-align:top;">is_scheduler</td><td style="vertical-align:top;">:</td><td><div>False</div></td></tr><tr><td style="font-weight:bold;vertical-align:top;">is_shell</td><td style="vertical-align:top;">:</td><td><div>False</div></td></tr><tr><td style="font-weight:bold;vertical-align:top;">now</td><td style="vertical-align:top;">:</td><td><div>datetime.datetime(2016, 10, 10, 15, 30, 22, 607212)</div></td></tr><tr><td style="font-weight:bold;vertical-align:top;">raw_args</td><td style="vertical-align:top;">:</td><td><div></div></td></tr><tr><td style="font-weight:bold;vertical-align:top;">raw_extension</td><td style="vertical-align:top;">:</td><td><div>None</div></td></tr><tr><td style="font-weight:bold;vertical-align:top;">url</td><td style="vertical-align:top;">:</td><td><div>/admin/default/site</div></td></tr><tr><td style="font-weight:bold;vertical-align:top;">utcnow</td><td style="vertical-align:top;">:</td><td><div>datetime.datetime(2016, 10, 10, 22, 30, 22, 607222)</div></td></tr><tr><td style="font-weight:bold;vertical-align:top;">wsgi</td><td style="vertical-align:top;">:</td><td><div>&lt;gluon.main.LazyWSGI object at 0x1148d72d0&gt;</div></td></tr></table></div>'
tRp58
sS'frames'
p59
(lp60
(dp61
S'file'
p62
S'/Users/bereket/Documents/CMPS115/web2py/gluon/restricted.py'
p63
sS'dump'
p64
(dp65
S'environment'
p66
S"{'A': <class 'gluon.html.A'>, 'ANY_OF': <class 'gluon.validators.ANY_OF'>, 'ASSIGNJS': <function ASSIGNJS>, 'A_button': <function A_button>, 'B': <class 'gluon.html.B'>, 'BEAUTIFY': <class 'gluon.html.BEAUTIFY'>, 'BODY': <class 'gluon.html.BODY'>, 'BR': <class 'gluon.html.BR'>, 'BUTTON': <class 'gluon.html.BUTTON'>, 'CAT': <class 'gluon.html.CAT'>, ...}"
p67
sS'ccode'
p68
S'<code object <module> at 0x110e1f6b0, file "/Use...lications/admin/views/default/site.html", line 1>'
p69
ssS'lnum'
p70
I227
sS'lines'
p71
(dp72
I224
S'            ccode = code'
p73
sI225
S'        else:'
p74
sI226
S'            ccode = compile2(code, layer)'
p75
sI227
S'        exec ccode in environment'
p76
sI228
S'    except HTTP:'
p77
sI229
S'        raise'
p78
sI230
S'    except RestrictedError:'
p79
sI231
S'        # do not encapsulate (obfuscate) the original RestrictedError'
p80
sI222
S'    try:'
p81
sI223
S'        if isinstance(code, types.CodeType):'
p82
ssS'call'
p83
S'(code=\'response.write(\\\'<!DOCTYPE html>\\\\n<html xmlns="ht...n</div>\\\\n\\\\n    </body>\\\\n</html>\\\\n\\\', escape=False)\', environment={\'A\': <class \'gluon.html.A\'>, \'ANY_OF\': <class \'gluon.validators.ANY_OF\'>, \'ASSIGNJS\': <function ASSIGNJS>, \'A_button\': <function A_button>, \'B\': <class \'gluon.html.B\'>, \'BEAUTIFY\': <class \'gluon.html.BEAUTIFY\'>, \'BODY\': <class \'gluon.html.BODY\'>, \'BR\': <class \'gluon.html.BR\'>, \'BUTTON\': <class \'gluon.html.BUTTON\'>, \'CAT\': <class \'gluon.html.CAT\'>, ...}, layer=\'/Users/bereket/Documents/CMPS115/web2py/applications/admin/views/default/site.html\')'
p84
sS'func'
p85
S'restricted'
p86
sa(dp87
g62
S'/Users/bereket/Documents/CMPS115/web2py/applications/admin/views/default/site.html'
p88
sg64
(dp89
sg70
I33
sg71
(dp90
I32
S'response.write(\'" method="post">\\n    <div><input type="hidden" name="send" value="\', escape=False)'
p91
sI33
S'response.write(send)'
p92
sI34
S'response.write(\'"/></div>\\n    <table>\\n        <h1>Online-Retail-Admin</h1>\\n        <br>\\n        <br>\\n      <tr><td>\', escape=False)'
p93
sI35
S"response.write(T('Administrator Password:'))"
p94
sI36
S'response.write(\'</td><td><input type="password" name="password" id="password"/></td></tr>\\n      <tr><td></td><td><button name="login">\', escape=False)'
p95
sI37
S"response.write(T('Login'))"
p96
sI38
S'response.write(\'</button></td></tr>\\n    </table>\\n    <input type="hidden" name="is_mobile" value="true"/>\\n  </form>\\n</div>\\n\\n    </body>\\n</html>\\n\', escape=False)'
p97
sI24
S'response.include_files()'
p98
sI25
S"response.write('\\n', escape=False)"
p99
sI26
S'response.write(\'\\n    </head>\\n\\n    <body class="\', escape=False)'
p100
sI27
S"response.write(T('direction: ltr') == 'direction: rtl' and 'RTLbody' or '')"
p101
sI28
S"response.write(' ', escape=False)"
p102
sI29
S"response.write('site', escape=False)"
p103
sI30
S'response.write(\'">\\n\\n   <div class="form">\\n  <form action="\', escape=False)'
p104
sI31
S'response.write(URL(r=request))'
p105
ssg83
S'()'
p106
sg85
S'<module>'
p107
sasS'pyver'
p108
S'Python 2.7.10: /usr/bin/python (prefix: /System/Library/Frameworks/Python.framework/Versions/2.7)'
p109
sS'session'
p110
g57
(S's\x0e\x04\x00\x00<div><table><tr><td style="font-weight:bold;vertical-align:top;">authorized</td><td style="vertical-align:top;">:</td><td><div>True</div></td></tr><tr><td style="font-weight:bold;vertical-align:top;">check_version</td><td style="vertical-align:top;">:</td><td><div>True</div></td></tr><tr><td style="font-weight:bold;vertical-align:top;">hmac_key</td><td style="vertical-align:top;">:</td><td><div>92d6ca37-acdf-48b8-9ce6-5fbd4be72d80</div></td></tr><tr><td style="font-weight:bold;vertical-align:top;">is_mobile</td><td style="vertical-align:top;">:</td><td><div>auto</div></td></tr><tr><td style="font-weight:bold;vertical-align:top;">last_time</td><td style="vertical-align:top;">:</td><td><div>1476138622.6112</div></td></tr><tr><td style="font-weight:bold;vertical-align:top;">pam_user</td><td style="vertical-align:top;">:</td><td><div>None</div></td></tr><tr><td style="font-weight:bold;vertical-align:top;">token</td><td style="vertical-align:top;">:</td><td><div>989d5115-38f7-4972-9580-dafd58f785a1</div></td></tr></table></div>'
tRp111
sS'etype'
p112
S"<type 'exceptions.NameError'>"
p113
sS'date'
p114
S'Mon Oct 10 15:30:22 2016'
p115
sS'response'
p116
g57
(S's\xcd\x1f\x00\x00<div><table><tr><td style="font-weight:bold;vertical-align:top;">body</td><td style="vertical-align:top;">:</td><td><div>&lt;cStringIO.StringO object at 0x1115cd810&gt;</div></td></tr><tr><td style="font-weight:bold;vertical-align:top;">cookies</td><td style="vertical-align:top;">:</td><td><div><table><tr><td style="font-weight:bold;vertical-align:top;">session_id_admin</td><td style="vertical-align:top;">:</td><td><div>127.0.0.1-5a73ffc3-c198-4491-a368-9178b7afe0b1<table><tr><td style="font-weight:bold;vertical-align:top;">comment</td><td style="vertical-align:top;">:</td><td><div></div></td></tr><tr><td style="font-weight:bold;vertical-align:top;">domain</td><td style="vertical-align:top;">:</td><td><div></div></td></tr><tr><td style="font-weight:bold;vertical-align:top;">expires</td><td style="vertical-align:top;">:</td><td><div></div></td></tr><tr><td style="font-weight:bold;vertical-align:top;">httponly</td><td style="vertical-align:top;">:</td><td><div></div></td></tr><tr><td style="font-weight:bold;vertical-align:top;">max-age</td><td style="vertical-align:top;">:</td><td><div></div></td></tr><tr><td style="font-weight:bold;vertical-align:top;">path</td><td style="vertical-align:top;">:</td><td><div>/</div></td></tr><tr><td style="font-weight:bold;vertical-align:top;">secure</td><td style="vertical-align:top;">:</td><td><div></div></td></tr><tr><td style="font-weight:bold;vertical-align:top;">version</td><td style="vertical-align:top;">:</td><td><div></div></td></tr></table></div></td></tr></table></div></td></tr><tr><td style="font-weight:bold;vertical-align:top;">delimiters</td><td style="vertical-align:top;">:</td><td><div><table><tr><td><div>{{</div></td></tr><tr><td><div>}}</div></td></tr></table></div></td></tr><tr><td style="font-weight:bold;vertical-align:top;">files</td><td style="vertical-align:top;">:</td><td><div><table><tr><td><div>/admin/static/_2.14.6/js/jquery.js</div></td></tr><tr><td><div>/admin/static/_2.14.6/css/calendar.css</div></td></tr><tr><td><div>/admin/static/_2.14.6/js/calendar.js</div></td></tr><tr><td><div>/admin/static/_2.14.6/js/web2py.js</div></td></tr><tr><td><div>/admin/static/_2.14.6/plugin_multiselect/jquery.multi-select.js</div></td></tr><tr><td><div>/admin/static/_2.14.6/plugin_multiselect/multi-select.css</div></td></tr><tr><td><div>/admin/static/_2.14.6/plugin_multiselect/start.js</div></td></tr><tr><td><div>/admin/static/_2.14.6/plugin_statebutton/js/bootstrap-switch.js</div></td></tr><tr><td><div>/admin/static/_2.14.6/plugin_statebutton/css/bootstrap-switch.css</div></td></tr><tr><td><div>/admin/static/_2.14.6/css/bootstrap.min.css</div></td></tr><tr><td><div>/admin/static/_2.14.6/css/bootstrap_essentials.css</div></td></tr><tr><td><div>/admin/static/_2.14.6/css/bootstrap-responsive.min.css</div></td></tr></table></div></td></tr><tr><td style="font-weight:bold;vertical-align:top;">flash</td><td style="vertical-align:top;">:</td><td><div></div></td></tr><tr><td style="font-weight:bold;vertical-align:top;">form_label_separator</td><td style="vertical-align:top;">:</td><td><div>: </div></td></tr><tr><td style="font-weight:bold;vertical-align:top;">formstyle</td><td style="vertical-align:top;">:</td><td><div>table3cols</div></td></tr><tr><td style="font-weight:bold;vertical-align:top;">generic_patterns</td><td style="vertical-align:top;">:</td><td><div><table><tr><td><div>*</div></td></tr></table></div></td></tr><tr><td style="font-weight:bold;vertical-align:top;">headers</td><td style="vertical-align:top;">:</td><td><div><table><tr><td style="font-weight:bold;vertical-align:top;">X-Powered-By</td><td style="vertical-align:top;">:</td><td><div>web2py</div></td></tr></table></div></td></tr><tr><td style="font-weight:bold;vertical-align:top;">menu</td><td style="vertical-align:top;">:</td><td><div><table><tr><td><div><table><tr><td><div>Site</div></td></tr><tr><td><div>True</div></td></tr><tr><td><div>/admin/default/site</div></td></tr></table></div></td></tr><tr><td><div><table><tr><td><div>Help</div></td></tr><tr><td><div>False</div></td></tr><tr><td><div>/examples/default/documentation</div></td></tr></table></div></td></tr><tr><td><div><table><tr><td><div>Logout</div></td></tr><tr><td><div>False</div></td></tr><tr><td><div>/admin/default/logout</div></td></tr></table></div></td></tr><tr><td><div><table><tr><td><div>Debug</div></td></tr><tr><td><div>False</div></td></tr><tr><td><div>/admin/debug/interact</div></td></tr></table></div></td></tr></table></div></td></tr><tr><td style="font-weight:bold;vertical-align:top;">meta</td><td style="vertical-align:top;">:</td><td><div><table></table></div></td></tr><tr><td style="font-weight:bold;vertical-align:top;">models_to_run</td><td style="vertical-align:top;">:</td><td><div><table><tr><td><div>^\\w+\\.py$</div></td></tr><tr><td><div>^default/\\w+\\.py$</div></td></tr><tr><td><div>^default/site/\\w+\\.py$</div></td></tr></table></div></td></tr><tr><td style="font-weight:bold;vertical-align:top;">postprocessing</td><td style="vertical-align:top;">:</td><td><div><table></table></div></td></tr><tr><td style="font-weight:bold;vertical-align:top;">session_client</td><td style="vertical-align:top;">:</td><td><div>127.0.0.1</div></td></tr><tr><td style="font-weight:bold;vertical-align:top;">session_cookie_compression_level</td><td style="vertical-align:top;">:</td><td><div>None</div></td></tr><tr><td style="font-weight:bold;vertical-align:top;">session_cookie_expires</td><td style="vertical-align:top;">:</td><td><div>None</div></td></tr><tr><td style="font-weight:bold;vertical-align:top;">session_data_name</td><td style="vertical-align:top;">:</td><td><div>session_data_admin</div></td></tr><tr><td style="font-weight:bold;vertical-align:top;">session_file</td><td style="vertical-align:top;">:</td><td><div>&lt;open file &#x27;/Users/bereket/Documents/CMPS115/web2py/applications/admin/sessions/0df/1f0/127.0.0.1-5a73ffc3-c198-4491-a368-9178b7afe0b1&#x27;, mode &#x27;rb+&#x27; at 0x10f32de40&gt;</div></td></tr><tr><td style="font-weight:bold;vertical-align:top;">session_filename</td><td style="vertical-align:top;">:</td><td><div>/Users/bereket/Documents/CMPS115/web2py/applications/admin/sessions/127.0.0.1-5a73ffc3-c198-4491-a368-9178b7afe0b1</div></td></tr><tr><td style="font-weight:bold;vertical-align:top;">session_hash</td><td style="vertical-align:top;">:</td><td><div>e2a7fadab8b66bda749cb45a465fffa9</div></td></tr><tr><td style="font-weight:bold;vertical-align:top;">session_id</td><td style="vertical-align:top;">:</td><td><div>127.0.0.1-5a73ffc3-c198-4491-a368-9178b7afe0b1</div></td></tr><tr><td style="font-weight:bold;vertical-align:top;">session_id_name</td><td style="vertical-align:top;">:</td><td><div>session_id_admin</div></td></tr><tr><td style="font-weight:bold;vertical-align:top;">session_locked</td><td style="vertical-align:top;">:</td><td><div>True</div></td></tr><tr><td style="font-weight:bold;vertical-align:top;">session_masterapp</td><td style="vertical-align:top;">:</td><td><div>admin</div></td></tr><tr><td style="font-weight:bold;vertical-align:top;">session_new</td><td style="vertical-align:top;">:</td><td><div>False</div></td></tr><tr><td style="font-weight:bold;vertical-align:top;">session_storage_type</td><td style="vertical-align:top;">:</td><td><div>file</div></td></tr><tr><td style="font-weight:bold;vertical-align:top;">static_version</td><td style="vertical-align:top;">:</td><td><div>2.14.6</div></td></tr><tr><td style="font-weight:bold;vertical-align:top;">static_version_urls</td><td style="vertical-align:top;">:</td><td><div>True</div></td></tr><tr><td style="font-weight:bold;vertical-align:top;">status</td><td style="vertical-align:top;">:</td><td><div>200</div></td></tr><tr><td style="font-weight:bold;vertical-align:top;">subtitle</td><td style="vertical-align:top;">:</td><td><div>admin</div></td></tr><tr><td style="font-weight:bold;vertical-align:top;">title</td><td style="vertical-align:top;">:</td><td><div>site </div></td></tr><tr><td style="font-weight:bold;vertical-align:top;">view</td><td style="vertical-align:top;">:</td><td><div>default/site.html</div></td></tr></table></div>'
tRp117
sS'locals'
p118
(dp119
S'OBJECT'
p120
S"<class 'gluon.html.OBJECT'>"
p121
sS'helpicon'
p122
S'<function helpicon>'
p123
sS'SQLDB'
p124
S"<class 'pydal.base.DAL'>"
p125
sS'read_hosts_deny'
p126
S'<function read_hosts_deny>'
p127
sg110
S"<Storage {'_user_agent': <Storage {'os': <Storag...ca-3d8a3b920932'], 'last_time': 1476138622.6112}>"
p128
sS'LINK'
p129
S"<class 'gluon.html.LINK'>"
p130
sS'BR'
p131
S"<class 'gluon.html.BR'>"
p132
sS'local_import'
p133
S'<function <lambda>>'
p134
sS'OPTGROUP'
p135
S"<class 'gluon.html.OPTGROUP'>"
p136
sS'__package__'
p137
S'None'
p138
sS'compile2'
p139
S'<function compile2>'
p140
sS'redirect'
p141
S'<function redirect>'
p142
sS'IS_INT_IN_RANGE'
p143
S"<class 'gluon.validators.IS_INT_IN_RANGE'>"
p144
sS'form_create'
p145
S'<gluon.sqlhtml.SQLFORM object>'
p146
sS'IS_LOWER'
p147
S"<class 'gluon.validators.IS_LOWER'>"
p148
sS'IS_STRONG'
p149
S"<class 'gluon.validators.IS_STRONG'>"
p150
sS'write_hosts_deny'
p151
S'<function write_hosts_deny>'
p152
sS'base64'
p153
S"<module 'base64' from '/System/Library/Framework...framework/Versions/2.7/lib/python2.7/base64.pyc'>"
p154
sS'_config'
p155
S"{'__builtins__': {'ArithmeticError': <type 'exceptions.ArithmeticError'>, 'AssertionError': <type 'exceptions.AssertionError'>, 'AttributeError': <type 'exceptions.AttributeError'>, 'BaseException': <type 'exceptions.BaseException'>, 'BufferError': <type 'exceptions.BufferError'>, 'BytesWarning': <type 'exceptions.BytesWarning'>, 'DeprecationWarning': <type 'exceptions.DeprecationWarning'>, 'EOFError': <type 'exceptions.EOFError'>, 'Ellipsis': Ellipsis, 'EnvironmentError': <type 'exceptions.EnvironmentError'>, ...}, '__file__': 'Unknown', '__name__': '__restricted__', 'password': 'pbkdf2(1000,20,sha512)$8e5054ef595a492a$77cf91a1b464732fecf1a0c6bd71beb5382a6100'}"
p156
sS'IS_IN_DB'
p157
S"<class 'gluon.validators.IS_IN_DB'>"
p158
sS'TAG'
p159
S'<gluon.html.__TAG__ object>'
p160
sS'WEB2PY_VERSION_URL'
p161
S"'http://web2py.com/examples/default/version'"
p162
sS'SQLField'
p163
S"<class 'pydal.objects.Field'>"
p164
sS'_f'
p165
S"'site'"
p166
sS'myversion'
p167
S"'2.14.6-stable+timestamp.2016.05.10.00.21.47'"
p168
sS'_c'
p169
S"'default'"
p170
sS'_a'
p171
S"'admin'"
p172
sS'BODY'
p173
S"<class 'gluon.html.BODY'>"
p174
sS'IS_DATE_IN_RANGE'
p175
S"<class 'gluon.validators.IS_DATE_IN_RANGE'>"
p176
sS'button_enable'
p177
S'<function button_enable>'
p178
sS'IFRAME'
p179
S"<class 'gluon.html.IFRAME'>"
p180
sS'ON'
p181
S'True'
p182
sS'URL'
p183
S'<function URL>'
p184
sS'__file__'
p185
S"'/Users/bereket/Documents/CMPS115/web2py/applications/admin/views/default/site.html'"
p186
sS'TFOOT'
p187
S"<class 'gluon.html.TFOOT'>"
p188
sS'P'
S"<class 'gluon.html.P'>"
p189
sS'T'
S'<gluon.languages.translator object>'
p190
sS'XHTML'
p191
S"<class 'gluon.html.XHTML'>"
p192
sS'deny_file'
p193
S"'/Users/bereket/Documents/CMPS115/web2py/applications/admin/private/hosts.deny'"
p194
sS'regex_include'
p195
S'<_sre.SRE_Pattern object>'
p196
sS'TicketStorage'
p197
S"<class 'gluon.restricted.TicketStorage'>"
p198
sS'OL'
p199
S"<class 'gluon.html.OL'>"
p200
sS'form_update'
p201
S'<gluon.sqlhtml.SQLFORM object>'
p202
sS'TEXTAREA'
p203
S"<class 'gluon.html.TEXTAREA'>"
p204
sS'MENU'
p205
S"<class 'gluon.html.MENU'>"
p206
sS'button'
p207
S'<function button>'
p208
sS'EMAIL_LOGIN'
p209
S'None'
p210
sS't0'
p211
S'1476138622.6112'
p212
sS'STYLE'
p213
S"<class 'gluon.html.STYLE'>"
p214
sS'WEB2PY_URL'
p215
S"'http://web2py.com'"
p216
sS'cgi'
p217
S"<module 'cgi' from '/System/Library/Frameworks/Python.framework/Versions/2.7/lib/python2.7/cgi.pyc'>"
p218
sS'CODE'
p219
S"<class 'gluon.html.CODE'>"
p220
sS'HTTP'
p221
S"<class 'gluon.http.HTTP'>"
p222
sS'is_gae'
p223
S'False'
p224
sS'HR'
p225
S"<class 'gluon.html.HR'>"
p226
sS'IS_DATETIME'
p227
S"<class 'gluon.validators.IS_DATETIME'>"
p228
sS'login_record'
p229
S'<function login_record>'
p230
sS'expiration_failed_logins'
p231
S'3600'
p232
sS'LABEL'
p233
S"<class 'gluon.html.LABEL'>"
p234
sS'CLEANUP'
p235
S"<class 'gluon.validators.CLEANUP'>"
p236
sS'read_file'
p237
S'<function read_file>'
p238
sS'port'
p239
S'8000'
p240
sS'SELECT'
p241
S"<class 'gluon.html.SELECT'>"
p242
sS'DEMO_MODE'
p243
g224
sS'sp_button'
p244
S'<function sp_button>'
p245
sS'LAYOUTS_APP'
p246
S"'http://web2py.com/layouts'"
p247
sS'regex_tables'
p248
S'<_sre.SRE_Pattern object>'
p249
sS'CENTER'
p250
S"<class 'gluon.html.CENTER'>"
p251
sS'allowed_number_of_attempts'
p252
S'5'
sg86
S'<function restricted>'
p253
sS'urllib'
p254
S"<module 'urllib' from '/System/Library/Framework...framework/Versions/2.7/lib/python2.7/urllib.pyc'>"
p255
sS'IS_EQUAL_TO'
p256
S"<class 'gluon.validators.IS_EQUAL_TO'>"
p257
sS'regex_longcomments'
p258
S'<_sre.SRE_Pattern object>'
p259
sS'HTML'
p260
S"<class 'gluon.html.HTML'>"
p261
sS'SQLFORM'
p262
S"<class 'gluon.sqlhtml.SQLFORM'>"
p263
sS'EMAIL_SERVER'
p264
S"'localhost'"
p265
sS'difflib'
p266
S"<module 'difflib' from '/System/Library/Framewor...ramework/Versions/2.7/lib/python2.7/difflib.pyc'>"
p267
sS'tar_compiled'
p268
S'<function tar_compiled>'
p269
sS'searchbox'
p270
S'<function searchbox>'
p271
sS'LOAD'
p272
S'<function LOAD>'
p273
sS'PRE'
p274
S"<class 'gluon.html.PRE'>"
p275
sS'FIELDSET'
p276
S"<class 'gluon.html.FIELDSET'>"
p277
sS'remove_compiled_application'
p278
S'<function remove_compiled_application>'
p279
sS'global_settings'
p280
S"<Storage {'debugging': False, 'is_pypy': False, ...+timestamp.2016.05.10.00.21.47', 'cmd_args': []}>"
p281
sS'FILTER_APPS'
p282
S'[]'
p283
sS'HEAD'
p284
S"<class 'gluon.html.HEAD'>"
p285
sS'embed64'
p286
S'<function embed64>'
p287
sS'IS_LIST_OF'
p288
S"<class 'gluon.validators.IS_LIST_OF'>"
p289
sS'INPUT'
p290
S"<class 'gluon.html.INPUT'>"
p291
sS'EMBED'
p292
S"<class 'gluon.html.EMBED'>"
p293
sS'FORM'
p294
S"<class 'gluon.html.FORM'>"
p295
sS'verify_password'
p296
S'<function verify_password>'
p297
sS'H2'
p298
S"<class 'gluon.html.H2'>"
p299
sS'H3'
p300
S"<class 'gluon.html.H3'>"
p301
sS'BUTTON'
p302
S"<class 'gluon.html.BUTTON'>"
p303
sS'H1'
p304
S"<class 'gluon.html.H1'>"
p305
sS'H6'
p306
S"<class 'gluon.html.H6'>"
p307
sS'portalocker'
p308
S"<module 'gluon.portalocker' from '/Users/bereket/Documents/CMPS115/web2py/gluon/portalocker.pyc'>"
p309
sS'is_manager'
p310
S'<function is_manager>'
p311
sS'H5'
p312
S"<class 'gluon.html.H5'>"
p313
sS'UL'
p314
S"<class 'gluon.html.UL'>"
p315
sS'IS_UPPER'
p316
S"<class 'gluon.validators.IS_UPPER'>"
p317
sS'xmlescape'
p318
S'<function xmlescape>'
p319
sS'IS_TIME'
p320
S"<class 'gluon.validators.IS_TIME'>"
p321
sS'os'
p322
S"<module 'os' from '/System/Library/Frameworks/Python.framework/Versions/2.7/lib/python2.7/os.pyc'>"
p323
sS'compile_application'
p324
S'<function compile_application>'
p325
sS'RestrictedError'
p326
S"<class 'gluon.restricted.RestrictedError'>"
p327
sS'cache'
p328
S'<gluon.cache.Cache object>'
p329
sS'OPTION'
p330
S"<class 'gluon.html.OPTION'>"
p331
sS'TITLE'
p332
S"<class 'gluon.html.TITLE'>"
p333
sS'CRYPT'
p334
S"<class 'gluon.validators.CRYPT'>"
p335
sS'app'
p336
S'None'
p337
sS'IS_EMPTY_OR'
p338
S"<class 'gluon.validators.IS_EMPTY_OR'>"
p339
sS'MARKMIN'
p340
S"<class 'gluon.html.MARKMIN'>"
p341
sS'web2py_uuid'
p342
S'<function web2py_uuid>'
p343
sS'sys'
p344
S"<module 'sys' (built-in)>"
p345
sS'apath'
p346
S'<function apath>'
p347
sS'MULTI_USER_MODE'
p348
g224
sS'STRONG'
p349
S"<class 'gluon.html.STRONG'>"
p350
sS'stateWidget'
p351
S'<function stateWidget>'
p352
sS'COL'
p353
S"<class 'gluon.html.COL'>"
p354
sS'SCRIPT'
p355
S"<class 'gluon.html.SCRIPT'>"
p356
sS'apps'
p357
S"['admin', 'Admin_Panel', 'examples', 'welcome']"
p358
sS'have_mercurial'
p359
g224
sS'is_mobile'
p360
g224
sS'EXPIRATION'
p361
S'3600'
p362
sS'findT'
p363
S'<function findT>'
p364
sS'TABLE'
p365
S"<class 'gluon.html.TABLE'>"
p366
sS'IS_IPV4'
p367
S"<class 'gluon.validators.IS_IPV4'>"
p368
sS'IS_LENGTH'
p369
S"<class 'gluon.validators.IS_LENGTH'>"
p370
sS'IS_IPV6'
p371
S"<class 'gluon.validators.IS_IPV6'>"
p372
sS'XML'
p373
S"<class 'gluon.html.XML'>"
p374
sS'B'
S"<class 'gluon.html.B'>"
p375
sS'IMG'
p376
S"<class 'gluon.html.IMG'>"
p377
sS'SQLTABLE'
p378
S"<class 'gluon.sqlhtml.SQLTABLE'>"
p379
sS'IS_MATCH'
p380
S"<class 'gluon.validators.IS_MATCH'>"
p381
sS'untar'
p382
S'<function untar>'
p383
sS'IS_ALPHANUMERIC'
p384
S"<class 'gluon.validators.IS_ALPHANUMERIC'>"
p385
sS'cleanpath'
p386
S'<function cleanpath>'
p387
sS'socket'
p388
S"<module 'socket' from '/System/Library/Framework...framework/Versions/2.7/lib/python2.7/socket.pyc'>"
p389
sS'SPAN'
p390
S"<class 'gluon.html.SPAN'>"
p391
sS'IS_JSON'
p392
S"<class 'gluon.validators.IS_JSON'>"
p393
sS'IS_IPADDRESS'
p394
S"<class 'gluon.validators.IS_IPADDRESS'>"
p395
sS'fix_newlines'
p396
S'<function fix_newlines>'
p397
sS'dedent'
p398
S'<function dedent>'
p399
sS'IS_SLUG'
p400
S"<class 'gluon.validators.IS_SLUG'>"
p401
sS'CHECK_VERSION'
p402
g182
sS'BEAUTIFY'
p403
S"<class 'gluon.html.BEAUTIFY'>"
p404
sS'META'
p405
S"<class 'gluon.html.META'>"
p406
sS'md5_hash'
p407
S'<function md5_hash>'
p408
sS'update_all_languages'
p409
S'<function update_all_languages>'
p410
sS'EM'
p411
S"<class 'gluon.html.EM'>"
p412
sS'IS_DATE'
p413
S"<class 'gluon.validators.IS_DATE'>"
p414
sS'IS_EMAIL'
p415
S"<class 'gluon.validators.IS_EMAIL'>"
p416
sS'tar'
p417
S'<function tar>'
p418
sS'up'
p419
S'<function up>'
p420
sS'IS_NOT_EMPTY'
p421
S"<class 'gluon.validators.IS_NOT_EMPTY'>"
p422
sg56
S"<Storage {'_vars': <Storage {}>, 'function': 'si...t/Documents/CMPS115/web2py/applications/admin/'}>"
p423
sS'TBODY'
p424
S"<class 'gluon.html.TBODY'>"
p425
sS'CAT'
p426
S"<class 'gluon.html.CAT'>"
p427
sS'Field'
p428
S"<class 'pydal.objects.Field'>"
p429
sS'H4'
p430
S"<class 'gluon.html.H4'>"
p431
sS'IS_LIST_OF_EMAILS'
p432
S"<class 'gluon.validators.IS_LIST_OF_EMAILS'>"
p433
sS'DIV'
p434
S"<class 'gluon.html.DIV'>"
p435
sS'shutil'
p436
S"<module 'shutil' from '/System/Library/Framework...framework/Versions/2.7/lib/python2.7/shutil.pyc'>"
p437
sS'LEGEND'
p438
S"<class 'gluon.html.LEGEND'>"
p439
sS'myplatform'
p440
S"'2.7.10'"
p441
sS'COLGROUP'
p442
S"<class 'gluon.html.COLGROUP'>"
p443
sS'A_button'
p444
S'<function A_button>'
p445
sS'TT'
p446
S"<class 'gluon.html.TT'>"
p447
sS'TR'
p448
S"<class 'gluon.html.TR'>"
p449
sS'LI'
p450
S"<class 'gluon.html.LI'>"
p451
sS'listdir'
p452
S'<function listdir>'
p453
sS'failed_login_count'
p454
S'<function failed_login_count>'
p455
sS'TH'
p456
S"<class 'gluon.html.TH'>"
p457
sS'TD'
p458
S"<class 'gluon.html.TD'>"
p459
sS'IS_URL'
p460
S"<class 'gluon.validators.IS_URL'>"
p461
sS'A'
S"<class 'gluon.html.A'>"
p462
sS'stat'
p463
S"<module 'stat' from '/System/Library/Frameworks/...n.framework/Versions/2.7/lib/python2.7/stat.pyc'>"
p464
sS'IS_DATETIME_IN_RANGE'
p465
S"<class 'gluon.validators.IS_DATETIME_IN_RANGE'>"
p466
sS'IS_IMAGE'
p467
S"<class 'gluon.validators.IS_IMAGE'>"
p468
sS'I'
S"<class 'gluon.html.I'>"
p469
sS'__builtins__'
p470
S"{'ArithmeticError': <type 'exceptions.ArithmeticError'>, 'AssertionError': <type 'exceptions.AssertionError'>, 'AttributeError': <type 'exceptions.AttributeError'>, 'BaseException': <type 'exceptions.BaseException'>, 'BufferError': <type 'exceptions.BufferError'>, 'BytesWarning': <type 'exceptions.BytesWarning'>, 'DeprecationWarning': <type 'exceptions.DeprecationWarning'>, 'EOFError': <type 'exceptions.EOFError'>, 'Ellipsis': Ellipsis, 'EnvironmentError': <type 'exceptions.EnvironmentError'>, ...}"
p471
sS'regex_expose'
p472
S'<_sre.SRE_Pattern object>'
p473
sS'IS_NOT_IN_DB'
p474
S"<class 'gluon.validators.IS_NOT_IN_DB'>"
p475
sS'http_host'
p476
S"'127.0.0.1'"
p477
sg116
S"<Storage {'body': <cStringIO.StringO object at 0...a> at 0x110d8bc80>, 'view': 'default/site.html'}>"
p478
sS'THEAD'
p479
S"<class 'gluon.html.THEAD'>"
p480
sS'ANY_OF'
p481
S"<class 'gluon.validators.ANY_OF'>"
p482
sS'IS_NULL_OR'
p483
S"<class 'gluon.validators.IS_EMPTY_OR'>"
p484
sS'PLUGINS_APP'
p485
S"'http://web2py.com/plugins'"
p486
sS'__name__'
p487
S"'__restricted__'"
p488
sS'GAE_APPCFG'
p489
S"'/usr/local/bin/appcfg.py'"
p490
sS'IS_FLOAT_IN_RANGE'
p491
S"<class 'gluon.validators.IS_FLOAT_IN_RANGE'>"
p492
sS'IS_EXPR'
p493
S"<class 'gluon.validators.IS_EXPR'>"
p494
sS'EMAIL_SENDER'
p495
S"'professor@example.com'"
p496
sS'DAL'
p497
S"<class 'pydal.base.DAL'>"
p498
sS'IS_IN_SET'
p499
S"<class 'gluon.validators.IS_IN_SET'>"
p500
sS'TWITTER_HASH'
p501
S"'web2py'"
p502
sS'IS_UPLOAD_FILENAME'
p503
S"<class 'gluon.validators.IS_UPLOAD_FILENAME'>"
p504
sS'time'
p505
S"<module 'time' from '/System/Library/Frameworks/.../Versions/2.7/lib/python2.7/lib-dynload/time.so'>"
p506
sS'regex_extend'
p507
S'<_sre.SRE_Pattern object>'
p508
sS'ASSIGNJS'
p509
S'<function ASSIGNJS>'
p510
sS're'
p511
S"<module 're' from '/System/Library/Frameworks/Python.framework/Versions/2.7/lib/python2.7/re.pyc'>"
p512
sS'IS_DECIMAL_IN_RANGE'
p513
S"<class 'gluon.validators.IS_DECIMAL_IN_RANGE'>"
p514
sssS'traceback'
p515
S'Traceback (most recent call last):\n  File "/Users/bereket/Documents/CMPS115/web2py/gluon/restricted.py", line 227, in restricted\n    exec ccode in environment\n  File "/Users/bereket/Documents/CMPS115/web2py/applications/admin/views/default/site.html", line 33, in <module>\n    {{else:}}\nNameError: name \'send\' is not defined\n'
p516
s.